
kernel.elf:     file format elf64-littleriscv


Disassembly of section .text:

0000000080200000 <boot>:
    80200000:	00041517          	auipc	a0,0x41
    80200004:	17050513          	addi	a0,a0,368 # 80241170 <__stack_top>
    80200008:	812a                	mv	sp,a0
    8020000a:	0c70006f          	j	802008d0 <kernel_main>
	...

0000000080200010 <sbi_call>:
    80200010:	00000073          	ecall
    80200014:	8082                	ret

0000000080200016 <putchar>:
    80200016:	4885                	li	a7,1
    80200018:	4581                	li	a1,0
    8020001a:	4601                	li	a2,0
    8020001c:	4681                	li	a3,0
    8020001e:	4701                	li	a4,0
    80200020:	4781                	li	a5,0
    80200022:	4801                	li	a6,0
    80200024:	00000073          	ecall
    80200028:	8082                	ret

000000008020002a <getchar>:
    8020002a:	4889                	li	a7,2
    8020002c:	4501                	li	a0,0
    8020002e:	4581                	li	a1,0
    80200030:	4601                	li	a2,0
    80200032:	4681                	li	a3,0
    80200034:	4701                	li	a4,0
    80200036:	4781                	li	a5,0
    80200038:	4801                	li	a6,0
    8020003a:	00000073          	ecall
    8020003e:	8082                	ret

0000000080200040 <kernel_entry>:
    80200040:	14011073          	csrw	sscratch,sp
    80200044:	f0810113          	addi	sp,sp,-248
    80200048:	e006                	sd	ra,0(sp)
    8020004a:	e40e                	sd	gp,8(sp)
    8020004c:	e812                	sd	tp,16(sp)
    8020004e:	ec16                	sd	t0,24(sp)
    80200050:	f01a                	sd	t1,32(sp)
    80200052:	f41e                	sd	t2,40(sp)
    80200054:	f872                	sd	t3,48(sp)
    80200056:	fc76                	sd	t4,56(sp)
    80200058:	e0fa                	sd	t5,64(sp)
    8020005a:	e4fe                	sd	t6,72(sp)
    8020005c:	e8aa                	sd	a0,80(sp)
    8020005e:	ecae                	sd	a1,88(sp)
    80200060:	f0b2                	sd	a2,96(sp)
    80200062:	f4b6                	sd	a3,104(sp)
    80200064:	f8ba                	sd	a4,112(sp)
    80200066:	fcbe                	sd	a5,120(sp)
    80200068:	e142                	sd	a6,128(sp)
    8020006a:	e546                	sd	a7,136(sp)
    8020006c:	e922                	sd	s0,144(sp)
    8020006e:	ed26                	sd	s1,152(sp)
    80200070:	f14a                	sd	s2,160(sp)
    80200072:	f54e                	sd	s3,168(sp)
    80200074:	f952                	sd	s4,176(sp)
    80200076:	fd56                	sd	s5,184(sp)
    80200078:	e1da                	sd	s6,192(sp)
    8020007a:	e5de                	sd	s7,200(sp)
    8020007c:	e9e2                	sd	s8,208(sp)
    8020007e:	ede6                	sd	s9,216(sp)
    80200080:	f1ea                	sd	s10,224(sp)
    80200082:	f5ee                	sd	s11,232(sp)
    80200084:	14002573          	csrr	a0,sscratch
    80200088:	f9aa                	sd	a0,240(sp)
    8020008a:	19a8                	addi	a0,sp,248
    8020008c:	14051073          	csrw	sscratch,a0
    80200090:	850a                	mv	a0,sp
    80200092:	00000097          	auipc	ra,0x0
    80200096:	784080e7          	jalr	1924(ra) # 80200816 <handle_trap>
    8020009a:	6082                	ld	ra,0(sp)
    8020009c:	61a2                	ld	gp,8(sp)
    8020009e:	6242                	ld	tp,16(sp)
    802000a0:	62e2                	ld	t0,24(sp)
    802000a2:	7302                	ld	t1,32(sp)
    802000a4:	73a2                	ld	t2,40(sp)
    802000a6:	7e42                	ld	t3,48(sp)
    802000a8:	7ee2                	ld	t4,56(sp)
    802000aa:	6f06                	ld	t5,64(sp)
    802000ac:	6fa6                	ld	t6,72(sp)
    802000ae:	6546                	ld	a0,80(sp)
    802000b0:	65e6                	ld	a1,88(sp)
    802000b2:	7606                	ld	a2,96(sp)
    802000b4:	76a6                	ld	a3,104(sp)
    802000b6:	7746                	ld	a4,112(sp)
    802000b8:	77e6                	ld	a5,120(sp)
    802000ba:	680a                	ld	a6,128(sp)
    802000bc:	68aa                	ld	a7,136(sp)
    802000be:	644a                	ld	s0,144(sp)
    802000c0:	64ea                	ld	s1,152(sp)
    802000c2:	790a                	ld	s2,160(sp)
    802000c4:	79aa                	ld	s3,168(sp)
    802000c6:	7a4a                	ld	s4,176(sp)
    802000c8:	7aea                	ld	s5,184(sp)
    802000ca:	6b0e                	ld	s6,192(sp)
    802000cc:	6bae                	ld	s7,200(sp)
    802000ce:	6c4e                	ld	s8,208(sp)
    802000d0:	6cee                	ld	s9,216(sp)
    802000d2:	7d0e                	ld	s10,224(sp)
    802000d4:	7dae                	ld	s11,232(sp)
    802000d6:	714e                	ld	sp,240(sp)
    802000d8:	10200073          	sret

00000000802000dc <myfunc>:
    802000dc:	1141                	addi	sp,sp,-16
    802000de:	e406                	sd	ra,8(sp)
    802000e0:	00001517          	auipc	a0,0x1
    802000e4:	c6550513          	addi	a0,a0,-923 # 80200d45 <$d.2>
    802000e8:	00001597          	auipc	a1,0x1
    802000ec:	af458593          	addi	a1,a1,-1292 # 80200bdc <printf+0x1fc>
    802000f0:	08700613          	li	a2,135
    802000f4:	00001097          	auipc	ra,0x1
    802000f8:	8ec080e7          	jalr	-1812(ra) # 802009e0 <printf>
    802000fc:	a001                	j	802000fc <myfunc+0x20>

00000000802000fe <switch_context>:
    802000fe:	f9810113          	addi	sp,sp,-104
    80200102:	e006                	sd	ra,0(sp)
    80200104:	e422                	sd	s0,8(sp)
    80200106:	e826                	sd	s1,16(sp)
    80200108:	ec4a                	sd	s2,24(sp)
    8020010a:	f04e                	sd	s3,32(sp)
    8020010c:	f452                	sd	s4,40(sp)
    8020010e:	f856                	sd	s5,48(sp)
    80200110:	fc5a                	sd	s6,56(sp)
    80200112:	e0de                	sd	s7,64(sp)
    80200114:	e4e2                	sd	s8,72(sp)
    80200116:	e8e6                	sd	s9,80(sp)
    80200118:	ecea                	sd	s10,88(sp)
    8020011a:	f0ee                	sd	s11,96(sp)
    8020011c:	00253023          	sd	sp,0(a0)
    80200120:	0005b103          	ld	sp,0(a1)
    80200124:	6082                	ld	ra,0(sp)
    80200126:	6422                	ld	s0,8(sp)
    80200128:	64c2                	ld	s1,16(sp)
    8020012a:	6962                	ld	s2,24(sp)
    8020012c:	7982                	ld	s3,32(sp)
    8020012e:	7a22                	ld	s4,40(sp)
    80200130:	7ac2                	ld	s5,48(sp)
    80200132:	7b62                	ld	s6,56(sp)
    80200134:	6b86                	ld	s7,64(sp)
    80200136:	6c26                	ld	s8,72(sp)
    80200138:	6cc6                	ld	s9,80(sp)
    8020013a:	6d66                	ld	s10,88(sp)
    8020013c:	7d86                	ld	s11,96(sp)
    8020013e:	06810113          	addi	sp,sp,104
    80200142:	8082                	ret

0000000080200144 <alloc_pages>:
    80200144:	1141                	addi	sp,sp,-16
    80200146:	e406                	sd	ra,8(sp)
    80200148:	e022                	sd	s0,0(sp)
    8020014a:	00011597          	auipc	a1,0x11
    8020014e:	f365b403          	ld	s0,-202(a1) # 80211080 <_binary_shell_bin_end>
    80200152:	00c51613          	slli	a2,a0,0xc
    80200156:	00c40533          	add	a0,s0,a2
    8020015a:	04042697          	auipc	a3,0x4042
    8020015e:	ea668693          	addi	a3,a3,-346 # 84242000 <__free_ram_end>
    80200162:	f2a5bb23          	sd	a0,-202(a1)
    80200166:	02a6f163          	bgeu	a3,a0,80200188 <alloc_pages+0x44>
    8020016a:	00001517          	auipc	a0,0x1
    8020016e:	b0750513          	addi	a0,a0,-1273 # 80200c71 <printf+0x291>
    80200172:	00001597          	auipc	a1,0x1
    80200176:	a6a58593          	addi	a1,a1,-1430 # 80200bdc <printf+0x1fc>
    8020017a:	0b900613          	li	a2,185
    8020017e:	00001097          	auipc	ra,0x1
    80200182:	862080e7          	jalr	-1950(ra) # 802009e0 <printf>
    80200186:	a001                	j	80200186 <alloc_pages+0x42>
    80200188:	8522                	mv	a0,s0
    8020018a:	4581                	li	a1,0
    8020018c:	00000097          	auipc	ra,0x0
    80200190:	7d0080e7          	jalr	2000(ra) # 8020095c <memset>
    80200194:	8522                	mv	a0,s0
    80200196:	60a2                	ld	ra,8(sp)
    80200198:	6402                	ld	s0,0(sp)
    8020019a:	0141                	addi	sp,sp,16
    8020019c:	8082                	ret

000000008020019e <map_page>:
    8020019e:	7179                	addi	sp,sp,-48
    802001a0:	f406                	sd	ra,40(sp)
    802001a2:	f022                	sd	s0,32(sp)
    802001a4:	ec26                	sd	s1,24(sp)
    802001a6:	e84a                	sd	s2,16(sp)
    802001a8:	e44e                	sd	s3,8(sp)
    802001aa:	e052                	sd	s4,0(sp)
    802001ac:	842e                	mv	s0,a1
    802001ae:	15d2                	slli	a1,a1,0x34
    802001b0:	c18d                	beqz	a1,802001d2 <map_page+0x34>
    802001b2:	00001517          	auipc	a0,0x1
    802001b6:	afe50513          	addi	a0,a0,-1282 # 80200cb0 <printf+0x2d0>
    802001ba:	00001597          	auipc	a1,0x1
    802001be:	a2258593          	addi	a1,a1,-1502 # 80200bdc <printf+0x1fc>
    802001c2:	0d900613          	li	a2,217
    802001c6:	86a2                	mv	a3,s0
    802001c8:	00001097          	auipc	ra,0x1
    802001cc:	818080e7          	jalr	-2024(ra) # 802009e0 <printf>
    802001d0:	a001                	j	802001d0 <map_page+0x32>
    802001d2:	6585                	lui	a1,0x1
    802001d4:	35fd                	addiw	a1,a1,-1
    802001d6:	8df1                	and	a1,a1,a2
    802001d8:	c18d                	beqz	a1,802001fa <map_page+0x5c>
    802001da:	00001517          	auipc	a0,0x1
    802001de:	ab450513          	addi	a0,a0,-1356 # 80200c8e <printf+0x2ae>
    802001e2:	00001597          	auipc	a1,0x1
    802001e6:	9fa58593          	addi	a1,a1,-1542 # 80200bdc <printf+0x1fc>
    802001ea:	86b2                	mv	a3,a2
    802001ec:	0dc00613          	li	a2,220
    802001f0:	00000097          	auipc	ra,0x0
    802001f4:	7f0080e7          	jalr	2032(ra) # 802009e0 <printf>
    802001f8:	a001                	j	802001f8 <map_page+0x5a>
    802001fa:	01941593          	slli	a1,s0,0x19
    802001fe:	91dd                	srli	a1,a1,0x37
    80200200:	058e                	slli	a1,a1,0x3
    80200202:	00b504b3          	add	s1,a0,a1
    80200206:	6088                	ld	a0,0(s1)
    80200208:	00157593          	andi	a1,a0,1
    8020020c:	edb1                	bnez	a1,80200268 <map_page+0xca>
    8020020e:	00011517          	auipc	a0,0x11
    80200212:	e7253903          	ld	s2,-398(a0) # 80211080 <_binary_shell_bin_end>
    80200216:	6585                	lui	a1,0x1
    80200218:	95ca                	add	a1,a1,s2
    8020021a:	04042717          	auipc	a4,0x4042
    8020021e:	de670713          	addi	a4,a4,-538 # 84242000 <__free_ram_end>
    80200222:	e6b53923          	sd	a1,-398(a0)
    80200226:	02b77163          	bgeu	a4,a1,80200248 <map_page+0xaa>
    8020022a:	00001517          	auipc	a0,0x1
    8020022e:	a4750513          	addi	a0,a0,-1465 # 80200c71 <printf+0x291>
    80200232:	00001597          	auipc	a1,0x1
    80200236:	9aa58593          	addi	a1,a1,-1622 # 80200bdc <printf+0x1fc>
    8020023a:	0b900613          	li	a2,185
    8020023e:	00000097          	auipc	ra,0x0
    80200242:	7a2080e7          	jalr	1954(ra) # 802009e0 <printf>
    80200246:	a001                	j	80200246 <map_page+0xa8>
    80200248:	89b2                	mv	s3,a2
    8020024a:	6605                	lui	a2,0x1
    8020024c:	854a                	mv	a0,s2
    8020024e:	4581                	li	a1,0
    80200250:	8a36                	mv	s4,a3
    80200252:	00000097          	auipc	ra,0x0
    80200256:	70a080e7          	jalr	1802(ra) # 8020095c <memset>
    8020025a:	86d2                	mv	a3,s4
    8020025c:	864e                	mv	a2,s3
    8020025e:	00c95513          	srli	a0,s2,0xc
    80200262:	052a                	slli	a0,a0,0xa
    80200264:	0505                	addi	a0,a0,1
    80200266:	e088                	sd	a0,0(s1)
    80200268:	02241593          	slli	a1,s0,0x22
    8020026c:	91dd                	srli	a1,a1,0x37
    8020026e:	8129                	srli	a0,a0,0xa
    80200270:	0532                	slli	a0,a0,0xc
    80200272:	058e                	slli	a1,a1,0x3
    80200274:	00b564b3          	or	s1,a0,a1
    80200278:	6088                	ld	a0,0(s1)
    8020027a:	00157593          	andi	a1,a0,1
    8020027e:	edb1                	bnez	a1,802002da <map_page+0x13c>
    80200280:	00011517          	auipc	a0,0x11
    80200284:	e0053903          	ld	s2,-512(a0) # 80211080 <_binary_shell_bin_end>
    80200288:	6585                	lui	a1,0x1
    8020028a:	95ca                	add	a1,a1,s2
    8020028c:	04042717          	auipc	a4,0x4042
    80200290:	d7470713          	addi	a4,a4,-652 # 84242000 <__free_ram_end>
    80200294:	e0b53023          	sd	a1,-512(a0)
    80200298:	02b77163          	bgeu	a4,a1,802002ba <map_page+0x11c>
    8020029c:	00001517          	auipc	a0,0x1
    802002a0:	9d550513          	addi	a0,a0,-1579 # 80200c71 <printf+0x291>
    802002a4:	00001597          	auipc	a1,0x1
    802002a8:	93858593          	addi	a1,a1,-1736 # 80200bdc <printf+0x1fc>
    802002ac:	0b900613          	li	a2,185
    802002b0:	00000097          	auipc	ra,0x0
    802002b4:	730080e7          	jalr	1840(ra) # 802009e0 <printf>
    802002b8:	a001                	j	802002b8 <map_page+0x11a>
    802002ba:	89b2                	mv	s3,a2
    802002bc:	6605                	lui	a2,0x1
    802002be:	854a                	mv	a0,s2
    802002c0:	4581                	li	a1,0
    802002c2:	8a36                	mv	s4,a3
    802002c4:	00000097          	auipc	ra,0x0
    802002c8:	698080e7          	jalr	1688(ra) # 8020095c <memset>
    802002cc:	86d2                	mv	a3,s4
    802002ce:	864e                	mv	a2,s3
    802002d0:	00c95513          	srli	a0,s2,0xc
    802002d4:	052a                	slli	a0,a0,0xa
    802002d6:	0505                	addi	a0,a0,1
    802002d8:	e088                	sd	a0,0(s1)
    802002da:	8129                	srli	a0,a0,0xa
    802002dc:	0532                	slli	a0,a0,0xc
    802002de:	8209                	srli	a2,a2,0x2
    802002e0:	8e55                	or	a2,a2,a3
    802002e2:	00166593          	ori	a1,a2,1
    802002e6:	8025                	srli	s0,s0,0x9
    802002e8:	6605                	lui	a2,0x1
    802002ea:	3661                	addiw	a2,a2,-8
    802002ec:	8e61                	and	a2,a2,s0
    802002ee:	8d51                	or	a0,a0,a2
    802002f0:	e10c                	sd	a1,0(a0)
    802002f2:	70a2                	ld	ra,40(sp)
    802002f4:	7402                	ld	s0,32(sp)
    802002f6:	64e2                	ld	s1,24(sp)
    802002f8:	6942                	ld	s2,16(sp)
    802002fa:	69a2                	ld	s3,8(sp)
    802002fc:	6a02                	ld	s4,0(sp)
    802002fe:	6145                	addi	sp,sp,48
    80200300:	8082                	ret

0000000080200302 <user_entry>:
    80200302:	01000537          	lui	a0,0x1000
    80200306:	02000593          	li	a1,32
    8020030a:	14151073          	csrw	sepc,a0
    8020030e:	10059073          	csrw	sstatus,a1
    80200312:	10200073          	sret

0000000080200316 <create_process>:
    80200316:	7119                	addi	sp,sp,-128
    80200318:	fc86                	sd	ra,120(sp)
    8020031a:	f8a2                	sd	s0,112(sp)
    8020031c:	f4a6                	sd	s1,104(sp)
    8020031e:	f0ca                	sd	s2,96(sp)
    80200320:	ecce                	sd	s3,88(sp)
    80200322:	e8d2                	sd	s4,80(sp)
    80200324:	e4d6                	sd	s5,72(sp)
    80200326:	e0da                	sd	s6,64(sp)
    80200328:	fc5e                	sd	s7,56(sp)
    8020032a:	f862                	sd	s8,48(sp)
    8020032c:	f466                	sd	s9,40(sp)
    8020032e:	f06a                	sd	s10,32(sp)
    80200330:	ec6e                	sd	s11,24(sp)
    80200332:	00011617          	auipc	a2,0x11
    80200336:	d5660a13          	addi	s4,a2,-682 # 80211088 <procs>
    8020033a:	004a2603          	lw	a2,4(s4)
    8020033e:	8aae                	mv	s5,a1
    80200340:	892a                	mv	s2,a0
    80200342:	ce31                	beqz	a2,8020039e <create_process+0x88>
    80200344:	6509                	lui	a0,0x2
    80200346:	9552                	add	a0,a0,s4
    80200348:	4d48                	lw	a0,28(a0)
    8020034a:	cd21                	beqz	a0,802003a2 <create_process+0x8c>
    8020034c:	6511                	lui	a0,0x4
    8020034e:	9552                	add	a0,a0,s4
    80200350:	5948                	lw	a0,52(a0)
    80200352:	c931                	beqz	a0,802003a6 <create_process+0x90>
    80200354:	6519                	lui	a0,0x6
    80200356:	9552                	add	a0,a0,s4
    80200358:	4568                	lw	a0,76(a0)
    8020035a:	c921                	beqz	a0,802003aa <create_process+0x94>
    8020035c:	6521                	lui	a0,0x8
    8020035e:	9552                	add	a0,a0,s4
    80200360:	5168                	lw	a0,100(a0)
    80200362:	c531                	beqz	a0,802003ae <create_process+0x98>
    80200364:	6529                	lui	a0,0xa
    80200366:	9552                	add	a0,a0,s4
    80200368:	5d68                	lw	a0,124(a0)
    8020036a:	c521                	beqz	a0,802003b2 <create_process+0x9c>
    8020036c:	6531                	lui	a0,0xc
    8020036e:	9552                	add	a0,a0,s4
    80200370:	09452503          	lw	a0,148(a0) # c094 <$d.2+0xaf0b>
    80200374:	c129                	beqz	a0,802003b6 <create_process+0xa0>
    80200376:	6539                	lui	a0,0xe
    80200378:	9552                	add	a0,a0,s4
    8020037a:	0ac52503          	lw	a0,172(a0) # e0ac <$d.2+0xcf23>
    8020037e:	cd15                	beqz	a0,802003ba <create_process+0xa4>
    80200380:	00001517          	auipc	a0,0x1
    80200384:	96350513          	addi	a0,a0,-1693 # 80200ce3 <$d.1+0x11>
    80200388:	00001597          	auipc	a1,0x1
    8020038c:	85458593          	addi	a1,a1,-1964 # 80200bdc <printf+0x1fc>
    80200390:	12700613          	li	a2,295
    80200394:	00000097          	auipc	ra,0x0
    80200398:	64c080e7          	jalr	1612(ra) # 802009e0 <printf>
    8020039c:	a001                	j	8020039c <create_process+0x86>
    8020039e:	4681                	li	a3,0
    802003a0:	a831                	j	802003bc <create_process+0xa6>
    802003a2:	4685                	li	a3,1
    802003a4:	a821                	j	802003bc <create_process+0xa6>
    802003a6:	4689                	li	a3,2
    802003a8:	a811                	j	802003bc <create_process+0xa6>
    802003aa:	468d                	li	a3,3
    802003ac:	a801                	j	802003bc <create_process+0xa6>
    802003ae:	4691                	li	a3,4
    802003b0:	a031                	j	802003bc <create_process+0xa6>
    802003b2:	4695                	li	a3,5
    802003b4:	a021                	j	802003bc <create_process+0xa6>
    802003b6:	4699                	li	a3,6
    802003b8:	a011                	j	802003bc <create_process+0xa6>
    802003ba:	469d                	li	a3,7
    802003bc:	6509                	lui	a0,0x2
    802003be:	0185059b          	addiw	a1,a0,24
    802003c2:	02b685b3          	mul	a1,a3,a1
    802003c6:	95d2                	add	a1,a1,s4
    802003c8:	00a58633          	add	a2,a1,a0
    802003cc:	00063823          	sd	zero,16(a2)
    802003d0:	00063423          	sd	zero,8(a2)
    802003d4:	00063023          	sd	zero,0(a2)
    802003d8:	fe063c23          	sd	zero,-8(a2)
    802003dc:	fe063823          	sd	zero,-16(a2)
    802003e0:	fe063423          	sd	zero,-24(a2)
    802003e4:	fe063023          	sd	zero,-32(a2)
    802003e8:	fc063c23          	sd	zero,-40(a2)
    802003ec:	fc063823          	sd	zero,-48(a2)
    802003f0:	fc063423          	sd	zero,-56(a2)
    802003f4:	fc063023          	sd	zero,-64(a2)
    802003f8:	fa063c23          	sd	zero,-72(a2)
    802003fc:	fb05051b          	addiw	a0,a0,-80
    80200400:	00a58633          	add	a2,a1,a0
    80200404:	00000517          	auipc	a0,0x0
    80200408:	00011b97          	auipc	s7,0x11
    8020040c:	c78bbc03          	ld	s8,-904(s7) # 80211080 <_binary_shell_bin_end>
    80200410:	efe50513          	addi	a0,a0,-258 # 80200302 <user_entry>
    80200414:	e208                	sd	a0,0(a2)
    80200416:	6505                	lui	a0,0x1
    80200418:	9562                	add	a0,a0,s8
    8020041a:	04042597          	auipc	a1,0x4042
    8020041e:	be658c93          	addi	s9,a1,-1050 # 84242000 <__free_ram_end>
    80200422:	c6abbc23          	sd	a0,-904(s7)
    80200426:	02acf163          	bgeu	s9,a0,80200448 <create_process+0x132>
    8020042a:	00001517          	auipc	a0,0x1
    8020042e:	84750513          	addi	a0,a0,-1977 # 80200c71 <printf+0x291>
    80200432:	00000597          	auipc	a1,0x0
    80200436:	7aa58593          	addi	a1,a1,1962 # 80200bdc <printf+0x1fc>
    8020043a:	0b900613          	li	a2,185
    8020043e:	00000097          	auipc	ra,0x0
    80200442:	5a2080e7          	jalr	1442(ra) # 802009e0 <printf>
    80200446:	a001                	j	80200446 <create_process+0x130>
    80200448:	e432                	sd	a2,8(sp)
    8020044a:	e836                	sd	a3,16(sp)
    8020044c:	6605                	lui	a2,0x1
    8020044e:	6485                	lui	s1,0x1
    80200450:	8562                	mv	a0,s8
    80200452:	4581                	li	a1,0
    80200454:	00000097          	auipc	ra,0x0
    80200458:	508080e7          	jalr	1288(ra) # 8020095c <memset>
    8020045c:	00000517          	auipc	a0,0x0
    80200460:	ba450413          	addi	s0,a0,-1116 # 80200000 <boot>
    80200464:	01947d63          	bgeu	s0,s9,8020047e <create_process+0x168>
    80200468:	46b9                	li	a3,14
    8020046a:	8562                	mv	a0,s8
    8020046c:	85a2                	mv	a1,s0
    8020046e:	8622                	mv	a2,s0
    80200470:	00000097          	auipc	ra,0x0
    80200474:	d2e080e7          	jalr	-722(ra) # 8020019e <map_page>
    80200478:	9426                	add	s0,s0,s1
    8020047a:	ff9467e3          	bltu	s0,s9,80200468 <create_process+0x152>
    8020047e:	060a8463          	beqz	s5,802004e6 <create_process+0x1d0>
    80200482:	4481                	li	s1,0
    80200484:	6d05                	lui	s10,0x1
    80200486:	01000db7          	lui	s11,0x1000
    8020048a:	89d6                	mv	s3,s5
    8020048c:	6b05                	lui	s6,0x1
    8020048e:	a805                	j	802004be <create_process+0x1a8>
    80200490:	009905b3          	add	a1,s2,s1
    80200494:	8522                	mv	a0,s0
    80200496:	00000097          	auipc	ra,0x0
    8020049a:	4dc080e7          	jalr	1244(ra) # 80200972 <memcpy>
    8020049e:	01b485b3          	add	a1,s1,s11
    802004a2:	46f9                	li	a3,30
    802004a4:	8562                	mv	a0,s8
    802004a6:	8622                	mv	a2,s0
    802004a8:	00000097          	auipc	ra,0x0
    802004ac:	cf6080e7          	jalr	-778(ra) # 8020019e <map_page>
    802004b0:	94da                	add	s1,s1,s6
    802004b2:	80098513          	addi	a0,s3,-2048
    802004b6:	80050993          	addi	s3,a0,-2048
    802004ba:	0354f663          	bgeu	s1,s5,802004e6 <create_process+0x1d0>
    802004be:	c78bb403          	ld	s0,-904(s7)
    802004c2:	01a40533          	add	a0,s0,s10
    802004c6:	c6abbc23          	sd	a0,-904(s7)
    802004ca:	04aceb63          	bltu	s9,a0,80200520 <create_process+0x20a>
    802004ce:	6605                	lui	a2,0x1
    802004d0:	8522                	mv	a0,s0
    802004d2:	4581                	li	a1,0
    802004d4:	00000097          	auipc	ra,0x0
    802004d8:	488080e7          	jalr	1160(ra) # 8020095c <memset>
    802004dc:	864e                	mv	a2,s3
    802004de:	fb69e9e3          	bltu	s3,s6,80200490 <create_process+0x17a>
    802004e2:	6605                	lui	a2,0x1
    802004e4:	b775                	j	80200490 <create_process+0x17a>
    802004e6:	6509                	lui	a0,0x2
    802004e8:	2561                	addiw	a0,a0,24
    802004ea:	65c2                	ld	a1,16(sp)
    802004ec:	02a58533          	mul	a0,a1,a0
    802004f0:	9552                	add	a0,a0,s4
    802004f2:	0585                	addi	a1,a1,1
    802004f4:	c10c                	sw	a1,0(a0)
    802004f6:	4585                	li	a1,1
    802004f8:	c14c                	sw	a1,4(a0)
    802004fa:	65a2                	ld	a1,8(sp)
    802004fc:	e50c                	sd	a1,8(a0)
    802004fe:	01853823          	sd	s8,16(a0) # 2010 <$d.2+0xe87>
    80200502:	70e6                	ld	ra,120(sp)
    80200504:	7446                	ld	s0,112(sp)
    80200506:	74a6                	ld	s1,104(sp)
    80200508:	7906                	ld	s2,96(sp)
    8020050a:	69e6                	ld	s3,88(sp)
    8020050c:	6a46                	ld	s4,80(sp)
    8020050e:	6aa6                	ld	s5,72(sp)
    80200510:	6b06                	ld	s6,64(sp)
    80200512:	7be2                	ld	s7,56(sp)
    80200514:	7c42                	ld	s8,48(sp)
    80200516:	7ca2                	ld	s9,40(sp)
    80200518:	7d02                	ld	s10,32(sp)
    8020051a:	6de2                	ld	s11,24(sp)
    8020051c:	6109                	addi	sp,sp,128
    8020051e:	8082                	ret
    80200520:	00000517          	auipc	a0,0x0
    80200524:	75150513          	addi	a0,a0,1873 # 80200c71 <printf+0x291>
    80200528:	00000597          	auipc	a1,0x0
    8020052c:	6b458593          	addi	a1,a1,1716 # 80200bdc <printf+0x1fc>
    80200530:	0b900613          	li	a2,185
    80200534:	00000097          	auipc	ra,0x0
    80200538:	4ac080e7          	jalr	1196(ra) # 802009e0 <printf>
    8020053c:	a001                	j	8020053c <create_process+0x226>

000000008020053e <yield>:
    8020053e:	00021897          	auipc	a7,0x21
    80200542:	c128b283          	ld	t0,-1006(a7) # 80221150 <current_proc>
    80200546:	0002a703          	lw	a4,0(t0)
    8020054a:	00021617          	auipc	a2,0x21
    8020054e:	00171593          	slli	a1,a4,0x1
    80200552:	91f5                	srli	a1,a1,0x3d
    80200554:	95ba                	add	a1,a1,a4
    80200556:	99e1                	andi	a1,a1,-8
    80200558:	40b706bb          	subw	a3,a4,a1
    8020055c:	6589                	lui	a1,0x2
    8020055e:	25e1                	addiw	a1,a1,24
    80200560:	02b687b3          	mul	a5,a3,a1
    80200564:	00011697          	auipc	a3,0x11
    80200568:	b2468693          	addi	a3,a3,-1244 # 80211088 <procs>
    8020056c:	97b6                	add	a5,a5,a3
    8020056e:	43c8                	lw	a0,4(a5)
    80200570:	bfe63803          	ld	a6,-1026(a2) # 80221148 <idle_proc>
    80200574:	4605                	li	a2,1
    80200576:	00c51563          	bne	a0,a2,80200580 <yield+0x42>
    8020057a:	4388                	lw	a0,0(a5)
    8020057c:	14a04063          	bgtz	a0,802006bc <yield+0x17e>
    80200580:	00170513          	addi	a0,a4,1
    80200584:	41f5579b          	sraiw	a5,a0,0x1f
    80200588:	01d7d79b          	srliw	a5,a5,0x1d
    8020058c:	97aa                	add	a5,a5,a0
    8020058e:	9be1                	andi	a5,a5,-8
    80200590:	40f507bb          	subw	a5,a0,a5
    80200594:	02b78533          	mul	a0,a5,a1
    80200598:	9536                	add	a0,a0,a3
    8020059a:	4148                	lw	a0,4(a0)
    8020059c:	00c51a63          	bne	a0,a2,802005b0 <yield+0x72>
    802005a0:	6509                	lui	a0,0x2
    802005a2:	2561                	addiw	a0,a0,24
    802005a4:	02a787b3          	mul	a5,a5,a0
    802005a8:	97b6                	add	a5,a5,a3
    802005aa:	4388                	lw	a0,0(a5)
    802005ac:	10a04863          	bgtz	a0,802006bc <yield+0x17e>
    802005b0:	00270513          	addi	a0,a4,2
    802005b4:	41f5559b          	sraiw	a1,a0,0x1f
    802005b8:	01d5d59b          	srliw	a1,a1,0x1d
    802005bc:	95aa                	add	a1,a1,a0
    802005be:	99e1                	andi	a1,a1,-8
    802005c0:	9d0d                	subw	a0,a0,a1
    802005c2:	6589                	lui	a1,0x2
    802005c4:	25e1                	addiw	a1,a1,24
    802005c6:	02b507b3          	mul	a5,a0,a1
    802005ca:	97b6                	add	a5,a5,a3
    802005cc:	43c8                	lw	a0,4(a5)
    802005ce:	4605                	li	a2,1
    802005d0:	00c51563          	bne	a0,a2,802005da <yield+0x9c>
    802005d4:	4388                	lw	a0,0(a5)
    802005d6:	0ea04363          	bgtz	a0,802006bc <yield+0x17e>
    802005da:	00370513          	addi	a0,a4,3
    802005de:	41f5579b          	sraiw	a5,a0,0x1f
    802005e2:	01d7d79b          	srliw	a5,a5,0x1d
    802005e6:	97aa                	add	a5,a5,a0
    802005e8:	9be1                	andi	a5,a5,-8
    802005ea:	40f507bb          	subw	a5,a0,a5
    802005ee:	02b78533          	mul	a0,a5,a1
    802005f2:	9536                	add	a0,a0,a3
    802005f4:	4148                	lw	a0,4(a0)
    802005f6:	00c51a63          	bne	a0,a2,8020060a <yield+0xcc>
    802005fa:	6509                	lui	a0,0x2
    802005fc:	2561                	addiw	a0,a0,24
    802005fe:	02a787b3          	mul	a5,a5,a0
    80200602:	97b6                	add	a5,a5,a3
    80200604:	4388                	lw	a0,0(a5)
    80200606:	0aa04b63          	bgtz	a0,802006bc <yield+0x17e>
    8020060a:	00470513          	addi	a0,a4,4
    8020060e:	41f5559b          	sraiw	a1,a0,0x1f
    80200612:	01d5d59b          	srliw	a1,a1,0x1d
    80200616:	95aa                	add	a1,a1,a0
    80200618:	99e1                	andi	a1,a1,-8
    8020061a:	9d0d                	subw	a0,a0,a1
    8020061c:	6589                	lui	a1,0x2
    8020061e:	25e1                	addiw	a1,a1,24
    80200620:	02b507b3          	mul	a5,a0,a1
    80200624:	97b6                	add	a5,a5,a3
    80200626:	43c8                	lw	a0,4(a5)
    80200628:	4605                	li	a2,1
    8020062a:	00c51563          	bne	a0,a2,80200634 <yield+0xf6>
    8020062e:	4388                	lw	a0,0(a5)
    80200630:	08a04663          	bgtz	a0,802006bc <yield+0x17e>
    80200634:	00570513          	addi	a0,a4,5
    80200638:	41f5579b          	sraiw	a5,a0,0x1f
    8020063c:	01d7d79b          	srliw	a5,a5,0x1d
    80200640:	97aa                	add	a5,a5,a0
    80200642:	9be1                	andi	a5,a5,-8
    80200644:	40f507bb          	subw	a5,a0,a5
    80200648:	02b78533          	mul	a0,a5,a1
    8020064c:	9536                	add	a0,a0,a3
    8020064e:	4148                	lw	a0,4(a0)
    80200650:	00c51a63          	bne	a0,a2,80200664 <yield+0x126>
    80200654:	6509                	lui	a0,0x2
    80200656:	2561                	addiw	a0,a0,24
    80200658:	02a787b3          	mul	a5,a5,a0
    8020065c:	97b6                	add	a5,a5,a3
    8020065e:	4388                	lw	a0,0(a5)
    80200660:	04a04e63          	bgtz	a0,802006bc <yield+0x17e>
    80200664:	00670513          	addi	a0,a4,6
    80200668:	41f5559b          	sraiw	a1,a0,0x1f
    8020066c:	01d5d59b          	srliw	a1,a1,0x1d
    80200670:	95aa                	add	a1,a1,a0
    80200672:	99e1                	andi	a1,a1,-8
    80200674:	9d0d                	subw	a0,a0,a1
    80200676:	6589                	lui	a1,0x2
    80200678:	25e1                	addiw	a1,a1,24
    8020067a:	02b507b3          	mul	a5,a0,a1
    8020067e:	97b6                	add	a5,a5,a3
    80200680:	43c8                	lw	a0,4(a5)
    80200682:	4605                	li	a2,1
    80200684:	00c51563          	bne	a0,a2,8020068e <yield+0x150>
    80200688:	4388                	lw	a0,0(a5)
    8020068a:	02a04963          	bgtz	a0,802006bc <yield+0x17e>
    8020068e:	071d                	addi	a4,a4,7
    80200690:	41f7551b          	sraiw	a0,a4,0x1f
    80200694:	01d5551b          	srliw	a0,a0,0x1d
    80200698:	953a                	add	a0,a0,a4
    8020069a:	9961                	andi	a0,a0,-8
    8020069c:	9f09                	subw	a4,a4,a0
    8020069e:	02b70533          	mul	a0,a4,a1
    802006a2:	9536                	add	a0,a0,a3
    802006a4:	4148                	lw	a0,4(a0)
    802006a6:	00c51a63          	bne	a0,a2,802006ba <yield+0x17c>
    802006aa:	6509                	lui	a0,0x2
    802006ac:	2561                	addiw	a0,a0,24
    802006ae:	02a707b3          	mul	a5,a4,a0
    802006b2:	97b6                	add	a5,a5,a3
    802006b4:	4388                	lw	a0,0(a5)
    802006b6:	00a04363          	bgtz	a0,802006bc <yield+0x17e>
    802006ba:	87c2                	mv	a5,a6
    802006bc:	02578d63          	beq	a5,t0,802006f6 <yield+0x1b8>
    802006c0:	6b88                	ld	a0,16(a5)
    802006c2:	8131                	srli	a0,a0,0xc
    802006c4:	55fd                	li	a1,-1
    802006c6:	15fe                	slli	a1,a1,0x3f
    802006c8:	8d4d                	or	a0,a0,a1
    802006ca:	6589                	lui	a1,0x2
    802006cc:	25e1                	addiw	a1,a1,24
    802006ce:	95be                	add	a1,a1,a5
    802006d0:	12000073          	sfence.vma
    802006d4:	18051073          	csrw	satp,a0
    802006d8:	12000073          	sfence.vma
    802006dc:	14059073          	csrw	sscratch,a1
    802006e0:	c128b503          	ld	a0,-1006(a7)
    802006e4:	0521                	addi	a0,a0,8
    802006e6:	00878593          	addi	a1,a5,8
    802006ea:	c0f8b923          	sd	a5,-1006(a7)
    802006ee:	00000317          	auipc	t1,0x0
    802006f2:	a1030067          	jr	-1520(t1) # 802000fe <switch_context>
    802006f6:	8082                	ret

00000000802006f8 <delay>:
    802006f8:	01c9c537          	lui	a0,0x1c9c
    802006fc:	38050513          	addi	a0,a0,896 # 1c9c380 <_binary_shell_bin_size+0x1c8c060>
    80200700:	357d                	addiw	a0,a0,-1
    80200702:	0001                	nop
    80200704:	fd75                	bnez	a0,80200700 <delay+0x8>
    80200706:	8082                	ret

0000000080200708 <proc_a_entry>:
    80200708:	1141                	addi	sp,sp,-16
    8020070a:	e406                	sd	ra,8(sp)
    8020070c:	e022                	sd	s0,0(sp)
    8020070e:	00000517          	auipc	a0,0x0
    80200712:	52650513          	addi	a0,a0,1318 # 80200c34 <printf+0x254>
    80200716:	00000097          	auipc	ra,0x0
    8020071a:	2ca080e7          	jalr	714(ra) # 802009e0 <printf>
    8020071e:	01c9c537          	lui	a0,0x1c9c
    80200722:	38050413          	addi	s0,a0,896 # 1c9c380 <_binary_shell_bin_size+0x1c8c060>
    80200726:	04100513          	li	a0,65
    8020072a:	4885                	li	a7,1
    8020072c:	4581                	li	a1,0
    8020072e:	4601                	li	a2,0
    80200730:	4681                	li	a3,0
    80200732:	4701                	li	a4,0
    80200734:	4781                	li	a5,0
    80200736:	4801                	li	a6,0
    80200738:	00000073          	ecall
    8020073c:	00000097          	auipc	ra,0x0
    80200740:	e02080e7          	jalr	-510(ra) # 8020053e <yield>
    80200744:	8522                	mv	a0,s0
    80200746:	357d                	addiw	a0,a0,-1
    80200748:	0001                	nop
    8020074a:	fd75                	bnez	a0,80200746 <proc_a_entry+0x3e>
    8020074c:	bfe9                	j	80200726 <proc_a_entry+0x1e>

000000008020074e <proc_b_entry>:
    8020074e:	1141                	addi	sp,sp,-16
    80200750:	e406                	sd	ra,8(sp)
    80200752:	e022                	sd	s0,0(sp)
    80200754:	00000517          	auipc	a0,0x0
    80200758:	4cc50513          	addi	a0,a0,1228 # 80200c20 <printf+0x240>
    8020075c:	00000097          	auipc	ra,0x0
    80200760:	284080e7          	jalr	644(ra) # 802009e0 <printf>
    80200764:	01c9c537          	lui	a0,0x1c9c
    80200768:	38050413          	addi	s0,a0,896 # 1c9c380 <_binary_shell_bin_size+0x1c8c060>
    8020076c:	04200513          	li	a0,66
    80200770:	4885                	li	a7,1
    80200772:	4581                	li	a1,0
    80200774:	4601                	li	a2,0
    80200776:	4681                	li	a3,0
    80200778:	4701                	li	a4,0
    8020077a:	4781                	li	a5,0
    8020077c:	4801                	li	a6,0
    8020077e:	00000073          	ecall
    80200782:	00000097          	auipc	ra,0x0
    80200786:	dbc080e7          	jalr	-580(ra) # 8020053e <yield>
    8020078a:	8522                	mv	a0,s0
    8020078c:	357d                	addiw	a0,a0,-1
    8020078e:	0001                	nop
    80200790:	fd75                	bnez	a0,8020078c <proc_b_entry+0x3e>
    80200792:	bfe9                	j	8020076c <proc_b_entry+0x1e>

0000000080200794 <handle_syscall>:
    80200794:	06954583          	lbu	a1,105(a0)
    80200798:	06854603          	lbu	a2,104(a0)
    8020079c:	06a54683          	lbu	a3,106(a0)
    802007a0:	06b54703          	lbu	a4,107(a0)
    802007a4:	05a2                	slli	a1,a1,0x8
    802007a6:	8dd1                	or	a1,a1,a2
    802007a8:	06c2                	slli	a3,a3,0x10
    802007aa:	0762                	slli	a4,a4,0x18
    802007ac:	8ed9                	or	a3,a3,a4
    802007ae:	8dd5                	or	a1,a1,a3
    802007b0:	06d54603          	lbu	a2,109(a0)
    802007b4:	06c54683          	lbu	a3,108(a0)
    802007b8:	06e54703          	lbu	a4,110(a0)
    802007bc:	06f54783          	lbu	a5,111(a0)
    802007c0:	0622                	slli	a2,a2,0x8
    802007c2:	8e55                	or	a2,a2,a3
    802007c4:	0742                	slli	a4,a4,0x10
    802007c6:	07e2                	slli	a5,a5,0x18
    802007c8:	8f5d                	or	a4,a4,a5
    802007ca:	8e59                	or	a2,a2,a4
    802007cc:	1602                	slli	a2,a2,0x20
    802007ce:	00b666b3          	or	a3,a2,a1
    802007d2:	4585                	li	a1,1
    802007d4:	00b69e63          	bne	a3,a1,802007f0 <handle_syscall+0x5c>
    802007d8:	05054503          	lbu	a0,80(a0)
    802007dc:	4885                	li	a7,1
    802007de:	4581                	li	a1,0
    802007e0:	4601                	li	a2,0
    802007e2:	4681                	li	a3,0
    802007e4:	4701                	li	a4,0
    802007e6:	4781                	li	a5,0
    802007e8:	4801                	li	a6,0
    802007ea:	00000073          	ecall
    802007ee:	8082                	ret
    802007f0:	1141                	addi	sp,sp,-16
    802007f2:	e406                	sd	ra,8(sp)
    802007f4:	00000517          	auipc	a0,0x0
    802007f8:	45450513          	addi	a0,a0,1108 # 80200c48 <printf+0x268>
    802007fc:	00000597          	auipc	a1,0x0
    80200800:	3e058593          	addi	a1,a1,992 # 80200bdc <printf+0x1fc>
    80200804:	1a200613          	li	a2,418
    80200808:	00000097          	auipc	ra,0x0
    8020080c:	1d8080e7          	jalr	472(ra) # 802009e0 <printf>
    80200810:	60a2                	ld	ra,8(sp)
    80200812:	0141                	addi	sp,sp,16
    80200814:	a001                	j	80200814 <handle_syscall+0x80>

0000000080200816 <handle_trap>:
    80200816:	1141                	addi	sp,sp,-16
    80200818:	e406                	sd	ra,8(sp)
    8020081a:	142026f3          	csrr	a3,scause
    8020081e:	14302773          	csrr	a4,stval
    80200822:	45a1                	li	a1,8
    80200824:	141022f3          	csrr	t0,sepc
    80200828:	06b69563          	bne	a3,a1,80200892 <handle_trap+0x7c>
    8020082c:	06954583          	lbu	a1,105(a0)
    80200830:	06854603          	lbu	a2,104(a0)
    80200834:	06a54683          	lbu	a3,106(a0)
    80200838:	06b54703          	lbu	a4,107(a0)
    8020083c:	05a2                	slli	a1,a1,0x8
    8020083e:	8dd1                	or	a1,a1,a2
    80200840:	06c2                	slli	a3,a3,0x10
    80200842:	0762                	slli	a4,a4,0x18
    80200844:	8ed9                	or	a3,a3,a4
    80200846:	8dd5                	or	a1,a1,a3
    80200848:	06d54603          	lbu	a2,109(a0)
    8020084c:	06c54683          	lbu	a3,108(a0)
    80200850:	06e54703          	lbu	a4,110(a0)
    80200854:	06f54783          	lbu	a5,111(a0)
    80200858:	0622                	slli	a2,a2,0x8
    8020085a:	8e55                	or	a2,a2,a3
    8020085c:	0742                	slli	a4,a4,0x10
    8020085e:	07e2                	slli	a5,a5,0x18
    80200860:	8f5d                	or	a4,a4,a5
    80200862:	8e59                	or	a2,a2,a4
    80200864:	1602                	slli	a2,a2,0x20
    80200866:	00b666b3          	or	a3,a2,a1
    8020086a:	4585                	li	a1,1
    8020086c:	04b69363          	bne	a3,a1,802008b2 <handle_trap+0x9c>
    80200870:	05054503          	lbu	a0,80(a0)
    80200874:	4885                	li	a7,1
    80200876:	4581                	li	a1,0
    80200878:	4601                	li	a2,0
    8020087a:	4681                	li	a3,0
    8020087c:	4701                	li	a4,0
    8020087e:	4781                	li	a5,0
    80200880:	4801                	li	a6,0
    80200882:	00000073          	ecall
    80200886:	0291                	addi	t0,t0,4
    80200888:	14129073          	csrw	sepc,t0
    8020088c:	60a2                	ld	ra,8(sp)
    8020088e:	0141                	addi	sp,sp,16
    80200890:	8082                	ret
    80200892:	00000517          	auipc	a0,0x0
    80200896:	47650513          	addi	a0,a0,1142 # 80200d08 <$d.1+0x36>
    8020089a:	00000597          	auipc	a1,0x0
    8020089e:	34258593          	addi	a1,a1,834 # 80200bdc <printf+0x1fc>
    802008a2:	1b000613          	li	a2,432
    802008a6:	8796                	mv	a5,t0
    802008a8:	00000097          	auipc	ra,0x0
    802008ac:	138080e7          	jalr	312(ra) # 802009e0 <printf>
    802008b0:	a001                	j	802008b0 <handle_trap+0x9a>
    802008b2:	00000517          	auipc	a0,0x0
    802008b6:	39650513          	addi	a0,a0,918 # 80200c48 <printf+0x268>
    802008ba:	00000597          	auipc	a1,0x0
    802008be:	32258593          	addi	a1,a1,802 # 80200bdc <printf+0x1fc>
    802008c2:	1a200613          	li	a2,418
    802008c6:	00000097          	auipc	ra,0x0
    802008ca:	11a080e7          	jalr	282(ra) # 802009e0 <printf>
    802008ce:	a001                	j	802008ce <handle_trap+0xb8>

00000000802008d0 <kernel_main>:
    802008d0:	1141                	addi	sp,sp,-16
    802008d2:	e406                	sd	ra,8(sp)
    802008d4:	00010517          	auipc	a0,0x10
    802008d8:	7b450513          	addi	a0,a0,1972 # 80211088 <procs>
    802008dc:	00021597          	auipc	a1,0x21
    802008e0:	88c58613          	addi	a2,a1,-1908 # 80221168 <__bss_end>
    802008e4:	8e09                	sub	a2,a2,a0
    802008e6:	4581                	li	a1,0
    802008e8:	00000097          	auipc	ra,0x0
    802008ec:	074080e7          	jalr	116(ra) # 8020095c <memset>
    802008f0:	fffff517          	auipc	a0,0xfffff
    802008f4:	75050513          	addi	a0,a0,1872 # 80200040 <kernel_entry>
    802008f8:	10551073          	csrw	stvec,a0
    802008fc:	4501                	li	a0,0
    802008fe:	4581                	li	a1,0
    80200900:	00000097          	auipc	ra,0x0
    80200904:	a16080e7          	jalr	-1514(ra) # 80200316 <create_process>
    80200908:	00021597          	auipc	a1,0x21
    8020090c:	84a5b023          	sd	a0,-1984(a1) # 80221148 <idle_proc>
    80200910:	00052023          	sw	zero,0(a0)
    80200914:	00021597          	auipc	a1,0x21
    80200918:	82a5be23          	sd	a0,-1988(a1) # 80221150 <current_proc>
    8020091c:	00000517          	auipc	a0,0x0
    80200920:	44450513          	addi	a0,a0,1092 # 80200d60 <_binary_shell_bin_start>
    80200924:	00010597          	auipc	a1,0x10
    80200928:	75c58593          	addi	a1,a1,1884 # 80211080 <_binary_shell_bin_end>
    8020092c:	8d89                	sub	a1,a1,a0
    8020092e:	00000097          	auipc	ra,0x0
    80200932:	9e8080e7          	jalr	-1560(ra) # 80200316 <create_process>
    80200936:	00000097          	auipc	ra,0x0
    8020093a:	c08080e7          	jalr	-1016(ra) # 8020053e <yield>
    8020093e:	00000517          	auipc	a0,0x0
    80200942:	2a750513          	addi	a0,a0,679 # 80200be5 <printf+0x205>
    80200946:	00000597          	auipc	a1,0x0
    8020094a:	29658593          	addi	a1,a1,662 # 80200bdc <printf+0x1fc>
    8020094e:	1db00613          	li	a2,475
    80200952:	00000097          	auipc	ra,0x0
    80200956:	08e080e7          	jalr	142(ra) # 802009e0 <printf>
    8020095a:	a001                	j	8020095a <kernel_main+0x8a>

000000008020095c <memset>:
    8020095c:	ca11                	beqz	a2,80200970 <memset+0x14>
    8020095e:	962a                	add	a2,a2,a0
    80200960:	86aa                	mv	a3,a0
    80200962:	00168713          	addi	a4,a3,1
    80200966:	00b68023          	sb	a1,0(a3)
    8020096a:	86ba                	mv	a3,a4
    8020096c:	fec71be3          	bne	a4,a2,80200962 <memset+0x6>
    80200970:	8082                	ret

0000000080200972 <memcpy>:
    80200972:	ce09                	beqz	a2,8020098c <memcpy+0x1a>
    80200974:	962a                	add	a2,a2,a0
    80200976:	86aa                	mv	a3,a0
    80200978:	0005c703          	lbu	a4,0(a1)
    8020097c:	0585                	addi	a1,a1,1
    8020097e:	00168793          	addi	a5,a3,1
    80200982:	00e68023          	sb	a4,0(a3)
    80200986:	86be                	mv	a3,a5
    80200988:	fec798e3          	bne	a5,a2,80200978 <memcpy+0x6>
    8020098c:	8082                	ret

000000008020098e <strcpy>:
    8020098e:	0005c603          	lbu	a2,0(a1)
    80200992:	86aa                	mv	a3,a0
    80200994:	ce01                	beqz	a2,802009ac <strcpy+0x1e>
    80200996:	0585                	addi	a1,a1,1
    80200998:	872a                	mv	a4,a0
    8020099a:	00c70023          	sb	a2,0(a4)
    8020099e:	0005c603          	lbu	a2,0(a1)
    802009a2:	00170693          	addi	a3,a4,1
    802009a6:	0585                	addi	a1,a1,1
    802009a8:	8736                	mv	a4,a3
    802009aa:	fa65                	bnez	a2,8020099a <strcpy+0xc>
    802009ac:	00068023          	sb	zero,0(a3)
    802009b0:	8082                	ret

00000000802009b2 <strcmp>:
    802009b2:	00054603          	lbu	a2,0(a0)
    802009b6:	c205                	beqz	a2,802009d6 <strcmp+0x24>
    802009b8:	0505                	addi	a0,a0,1
    802009ba:	0005c683          	lbu	a3,0(a1)
    802009be:	0ff67713          	andi	a4,a2,255
    802009c2:	00d71763          	bne	a4,a3,802009d0 <strcmp+0x1e>
    802009c6:	00054603          	lbu	a2,0(a0)
    802009ca:	0585                	addi	a1,a1,1
    802009cc:	0505                	addi	a0,a0,1
    802009ce:	f675                	bnez	a2,802009ba <strcmp+0x8>
    802009d0:	0ff67513          	andi	a0,a2,255
    802009d4:	a011                	j	802009d8 <strcmp+0x26>
    802009d6:	4501                	li	a0,0
    802009d8:	0005c583          	lbu	a1,0(a1)
    802009dc:	8d0d                	sub	a0,a0,a1
    802009de:	8082                	ret

00000000802009e0 <printf>:
    802009e0:	7171                	addi	sp,sp,-176
    802009e2:	f486                	sd	ra,104(sp)
    802009e4:	f0a2                	sd	s0,96(sp)
    802009e6:	eca6                	sd	s1,88(sp)
    802009e8:	e8ca                	sd	s2,80(sp)
    802009ea:	e4ce                	sd	s3,72(sp)
    802009ec:	e0d2                	sd	s4,64(sp)
    802009ee:	fc56                	sd	s5,56(sp)
    802009f0:	f85a                	sd	s6,48(sp)
    802009f2:	f45e                	sd	s7,40(sp)
    802009f4:	f062                	sd	s8,32(sp)
    802009f6:	ec66                	sd	s9,24(sp)
    802009f8:	e86a                	sd	s10,16(sp)
    802009fa:	e46e                	sd	s11,8(sp)
    802009fc:	842a                	mv	s0,a0
    802009fe:	f546                	sd	a7,168(sp)
    80200a00:	f142                	sd	a6,160(sp)
    80200a02:	ed3e                	sd	a5,152(sp)
    80200a04:	e93a                	sd	a4,144(sp)
    80200a06:	e536                	sd	a3,136(sp)
    80200a08:	e132                	sd	a2,128(sp)
    80200a0a:	fcae                	sd	a1,120(sp)
    80200a0c:	18a8                	addi	a0,sp,120
    80200a0e:	e02a                	sd	a0,0(sp)
    80200a10:	02500a13          	li	s4,37
    80200a14:	07200913          	li	s2,114
    80200a18:	4b29                	li	s6,10
    80200a1a:	4aa5                	li	s5,9
    80200a1c:	ccccd537          	lui	a0,0xccccd
    80200a20:	ccd50d13          	addi	s10,a0,-819 # ffffffffcccccccd <__free_ram_end+0xffffffff48a8accd>
    80200a24:	1d02                	slli	s10,s10,0x20
    80200a26:	07300b93          	li	s7,115
    80200a2a:	07800c13          	li	s8,120
    80200a2e:	00000517          	auipc	a0,0x0
    80200a32:	2a450c93          	addi	s9,a0,676 # 80200cd2 <$d.1>
    80200a36:	a021                	j	80200a3e <printf+0x5e>
    80200a38:	16050d63          	beqz	a0,80200bb2 <printf+0x1d2>
    80200a3c:	0405                	addi	s0,s0,1
    80200a3e:	00044503          	lbu	a0,0(s0)
    80200a42:	01450a63          	beq	a0,s4,80200a56 <printf+0x76>
    80200a46:	16050c63          	beqz	a0,80200bbe <printf+0x1de>
    80200a4a:	fffff097          	auipc	ra,0xfffff
    80200a4e:	5cc080e7          	jalr	1484(ra) # 80200016 <putchar>
    80200a52:	0405                	addi	s0,s0,1
    80200a54:	b7ed                	j	80200a3e <printf+0x5e>
    80200a56:	00144503          	lbu	a0,1(s0)
    80200a5a:	0405                	addi	s0,s0,1
    80200a5c:	02a94463          	blt	s2,a0,80200a84 <printf+0xa4>
    80200a60:	ff4505e3          	beq	a0,s4,80200a4a <printf+0x6a>
    80200a64:	06400593          	li	a1,100
    80200a68:	fcb518e3          	bne	a0,a1,80200a38 <printf+0x58>
    80200a6c:	6502                	ld	a0,0(sp)
    80200a6e:	00850593          	addi	a1,a0,8
    80200a72:	e02e                	sd	a1,0(sp)
    80200a74:	00052d83          	lw	s11,0(a0)
    80200a78:	0e0dc463          	bltz	s11,80200b60 <printf+0x180>
    80200a7c:	4505                	li	a0,1
    80200a7e:	116de363          	bltu	s11,s6,80200b84 <printf+0x1a4>
    80200a82:	a8d5                	j	80200b76 <printf+0x196>
    80200a84:	0b750963          	beq	a0,s7,80200b36 <printf+0x156>
    80200a88:	fb851ae3          	bne	a0,s8,80200a3c <printf+0x5c>
    80200a8c:	6502                	ld	a0,0(sp)
    80200a8e:	00850593          	addi	a1,a0,8
    80200a92:	e02e                	sd	a1,0(sp)
    80200a94:	00056483          	lwu	s1,0(a0)
    80200a98:	01c4d513          	srli	a0,s1,0x1c
    80200a9c:	9566                	add	a0,a0,s9
    80200a9e:	00054503          	lbu	a0,0(a0)
    80200aa2:	fffff097          	auipc	ra,0xfffff
    80200aa6:	574080e7          	jalr	1396(ra) # 80200016 <putchar>
    80200aaa:	02449513          	slli	a0,s1,0x24
    80200aae:	9171                	srli	a0,a0,0x3c
    80200ab0:	9566                	add	a0,a0,s9
    80200ab2:	00054503          	lbu	a0,0(a0)
    80200ab6:	fffff097          	auipc	ra,0xfffff
    80200aba:	560080e7          	jalr	1376(ra) # 80200016 <putchar>
    80200abe:	02849513          	slli	a0,s1,0x28
    80200ac2:	9171                	srli	a0,a0,0x3c
    80200ac4:	9566                	add	a0,a0,s9
    80200ac6:	00054503          	lbu	a0,0(a0)
    80200aca:	fffff097          	auipc	ra,0xfffff
    80200ace:	54c080e7          	jalr	1356(ra) # 80200016 <putchar>
    80200ad2:	02c49513          	slli	a0,s1,0x2c
    80200ad6:	9171                	srli	a0,a0,0x3c
    80200ad8:	9566                	add	a0,a0,s9
    80200ada:	00054503          	lbu	a0,0(a0)
    80200ade:	fffff097          	auipc	ra,0xfffff
    80200ae2:	538080e7          	jalr	1336(ra) # 80200016 <putchar>
    80200ae6:	03049513          	slli	a0,s1,0x30
    80200aea:	9171                	srli	a0,a0,0x3c
    80200aec:	9566                	add	a0,a0,s9
    80200aee:	00054503          	lbu	a0,0(a0)
    80200af2:	fffff097          	auipc	ra,0xfffff
    80200af6:	524080e7          	jalr	1316(ra) # 80200016 <putchar>
    80200afa:	03449513          	slli	a0,s1,0x34
    80200afe:	9171                	srli	a0,a0,0x3c
    80200b00:	9566                	add	a0,a0,s9
    80200b02:	00054503          	lbu	a0,0(a0)
    80200b06:	fffff097          	auipc	ra,0xfffff
    80200b0a:	510080e7          	jalr	1296(ra) # 80200016 <putchar>
    80200b0e:	03849513          	slli	a0,s1,0x38
    80200b12:	9171                	srli	a0,a0,0x3c
    80200b14:	9566                	add	a0,a0,s9
    80200b16:	00054503          	lbu	a0,0(a0)
    80200b1a:	fffff097          	auipc	ra,0xfffff
    80200b1e:	4fc080e7          	jalr	1276(ra) # 80200016 <putchar>
    80200b22:	88bd                	andi	s1,s1,15
    80200b24:	94e6                	add	s1,s1,s9
    80200b26:	0004c503          	lbu	a0,0(s1) # 1000 <$d.10+0x679>
    80200b2a:	fffff097          	auipc	ra,0xfffff
    80200b2e:	4ec080e7          	jalr	1260(ra) # 80200016 <putchar>
    80200b32:	0405                	addi	s0,s0,1
    80200b34:	b729                	j	80200a3e <printf+0x5e>
    80200b36:	6502                	ld	a0,0(sp)
    80200b38:	00850593          	addi	a1,a0,8
    80200b3c:	e02e                	sd	a1,0(sp)
    80200b3e:	6104                	ld	s1,0(a0)
    80200b40:	0004c503          	lbu	a0,0(s1)
    80200b44:	ee050ce3          	beqz	a0,80200a3c <printf+0x5c>
    80200b48:	0485                	addi	s1,s1,1
    80200b4a:	0ff57513          	andi	a0,a0,255
    80200b4e:	fffff097          	auipc	ra,0xfffff
    80200b52:	4c8080e7          	jalr	1224(ra) # 80200016 <putchar>
    80200b56:	0004c503          	lbu	a0,0(s1)
    80200b5a:	0485                	addi	s1,s1,1
    80200b5c:	f57d                	bnez	a0,80200b4a <printf+0x16a>
    80200b5e:	bdf9                	j	80200a3c <printf+0x5c>
    80200b60:	02d00513          	li	a0,45
    80200b64:	fffff097          	auipc	ra,0xfffff
    80200b68:	4b2080e7          	jalr	1202(ra) # 80200016 <putchar>
    80200b6c:	41b00dbb          	negw	s11,s11
    80200b70:	4505                	li	a0,1
    80200b72:	016de963          	bltu	s11,s6,80200b84 <printf+0x1a4>
    80200b76:	4505                	li	a0,1
    80200b78:	0365053b          	mulw	a0,a0,s6
    80200b7c:	02add5bb          	divuw	a1,s11,a0
    80200b80:	febaece3          	bltu	s5,a1,80200b78 <printf+0x198>
    80200b84:	84aa                	mv	s1,a0
    80200b86:	02add9bb          	divuw	s3,s11,a0
    80200b8a:	03098513          	addi	a0,s3,48
    80200b8e:	0ff57513          	andi	a0,a0,255
    80200b92:	fffff097          	auipc	ra,0xfffff
    80200b96:	484080e7          	jalr	1156(ra) # 80200016 <putchar>
    80200b9a:	02998533          	mul	a0,s3,s1
    80200b9e:	40ad8dbb          	subw	s11,s11,a0
    80200ba2:	02049513          	slli	a0,s1,0x20
    80200ba6:	03a53533          	mulhu	a0,a0,s10
    80200baa:	910d                	srli	a0,a0,0x23
    80200bac:	fd64fce3          	bgeu	s1,s6,80200b84 <printf+0x1a4>
    80200bb0:	b571                	j	80200a3c <printf+0x5c>
    80200bb2:	02500513          	li	a0,37
    80200bb6:	fffff097          	auipc	ra,0xfffff
    80200bba:	460080e7          	jalr	1120(ra) # 80200016 <putchar>
    80200bbe:	70a6                	ld	ra,104(sp)
    80200bc0:	7406                	ld	s0,96(sp)
    80200bc2:	64e6                	ld	s1,88(sp)
    80200bc4:	6946                	ld	s2,80(sp)
    80200bc6:	69a6                	ld	s3,72(sp)
    80200bc8:	6a06                	ld	s4,64(sp)
    80200bca:	7ae2                	ld	s5,56(sp)
    80200bcc:	7b42                	ld	s6,48(sp)
    80200bce:	7ba2                	ld	s7,40(sp)
    80200bd0:	7c02                	ld	s8,32(sp)
    80200bd2:	6ce2                	ld	s9,24(sp)
    80200bd4:	6d42                	ld	s10,16(sp)
    80200bd6:	6da2                	ld	s11,8(sp)
    80200bd8:	614d                	addi	sp,sp,176
    80200bda:	8082                	ret

Disassembly of section .rodata:

0000000080200bdc <$d.1-0xf6>:
    80200bdc:	6e72656b          	0x6e72656b
    80200be0:	6c65                	lui	s8,0x19
    80200be2:	632e                	ld	t1,200(sp)
    80200be4:	5000                	lw	s0,32(s0)
    80200be6:	4e41                	li	t3,16
    80200be8:	4349                	li	t1,18
    80200bea:	203a                	fld	ft0,392(sp)
    80200bec:	7325                	lui	t1,0xfffe9
    80200bee:	253a                	fld	fa0,392(sp)
    80200bf0:	3a64                	fld	fs1,240(a2)
    80200bf2:	5220                	lw	s0,96(a2)
    80200bf4:	7465                	lui	s0,0xffff9
    80200bf6:	7275                	lui	tp,0xffffd
    80200bf8:	656e                	ld	a0,216(sp)
    80200bfa:	2064                	fld	fs1,192(s0)
    80200bfc:	6f74                	ld	a3,216(a4)
    80200bfe:	6920                	ld	s0,80(a0)
    80200c00:	6c64                	ld	s1,216(s0)
    80200c02:	2e65                	addiw	t3,t3,25
    80200c04:	4c20                	lw	s0,88(s0)
    80200c06:	6b69                	lui	s6,0x1a
    80200c08:	6c65                	lui	s8,0x19
    80200c0a:	2079                	0x2079
    80200c0c:	7375                	lui	t1,0xffffd
    80200c0e:	7265                	lui	tp,0xffff9
    80200c10:	6320                	ld	s0,64(a4)
    80200c12:	2065646f          	jal	s0,80256e18 <__free_ram+0x14e18>
    80200c16:	73617263          	bgeu	sp,s6,8020133a <_binary_shell_bin_start+0x5da>
    80200c1a:	6568                	ld	a0,200(a0)
    80200c1c:	2e64                	fld	fs1,216(a2)
    80200c1e:	000a                	c.slli	zero,0x2
    80200c20:	72617473          	csrrci	s0,0x726,2
    80200c24:	6974                	ld	a3,208(a0)
    80200c26:	676e                	ld	a4,216(sp)
    80200c28:	7020                	ld	s0,96(s0)
    80200c2a:	6f72                	ld	t5,280(sp)
    80200c2c:	73736563          	bltu	t1,s7,80201356 <_binary_shell_bin_start+0x5f6>
    80200c30:	4220                	lw	s0,64(a2)
    80200c32:	000a                	c.slli	zero,0x2
    80200c34:	72617473          	csrrci	s0,0x726,2
    80200c38:	6974                	ld	a3,208(a0)
    80200c3a:	676e                	ld	a4,216(sp)
    80200c3c:	7020                	ld	s0,96(s0)
    80200c3e:	6f72                	ld	t5,280(sp)
    80200c40:	73736563          	bltu	t1,s7,8020136a <_binary_shell_bin_start+0x60a>
    80200c44:	4120                	lw	s0,64(a0)
    80200c46:	000a                	c.slli	zero,0x2
    80200c48:	4150                	lw	a2,4(a0)
    80200c4a:	494e                	lw	s2,208(sp)
    80200c4c:	25203a43          	0x25203a43
    80200c50:	64253a73          	csrrc	s4,0x642,a0
    80200c54:	203a                	fld	ft0,392(sp)
    80200c56:	6e75                	lui	t3,0x1d
    80200c58:	7865                	lui	a6,0xffff9
    80200c5a:	6570                	ld	a2,200(a0)
    80200c5c:	64657463          	bgeu	a0,t1,802012a4 <_binary_shell_bin_start+0x544>
    80200c60:	7320                	ld	s0,96(a4)
    80200c62:	7379                	lui	t1,0xffffe
    80200c64:	6c6c6163          	bltu	s8,t1,80201326 <_binary_shell_bin_start+0x5c6>
    80200c68:	6120                	ld	s0,64(a0)
    80200c6a:	78253d33          	0x78253d33
    80200c6e:	0a0a                	slli	s4,s4,0x2
    80200c70:	5000                	lw	s0,32(s0)
    80200c72:	4e41                	li	t3,16
    80200c74:	4349                	li	t1,18
    80200c76:	203a                	fld	ft0,392(sp)
    80200c78:	7325                	lui	t1,0xfffe9
    80200c7a:	253a                	fld	fa0,392(sp)
    80200c7c:	3a64                	fld	fs1,240(a2)
    80200c7e:	6f20                	ld	s0,88(a4)
    80200c80:	7475                	lui	s0,0xffffd
    80200c82:	6f20                	ld	s0,88(a4)
    80200c84:	2066                	fld	ft0,88(sp)
    80200c86:	656d                	lui	a0,0x1b
    80200c88:	6f6d                	lui	t5,0x1b
    80200c8a:	7972                	ld	s2,312(sp)
    80200c8c:	000a                	c.slli	zero,0x2
    80200c8e:	4150                	lw	a2,4(a0)
    80200c90:	494e                	lw	s2,208(sp)
    80200c92:	25203a43          	0x25203a43
    80200c96:	64253a73          	csrrc	s4,0x642,a0
    80200c9a:	203a                	fld	ft0,392(sp)
    80200c9c:	6e75                	lui	t3,0x1d
    80200c9e:	6c61                	lui	s8,0x18
    80200ca0:	6769                	lui	a4,0x1a
    80200ca2:	656e                	ld	a0,216(sp)
    80200ca4:	2064                	fld	fs1,192(s0)
    80200ca6:	6170                	ld	a2,192(a0)
    80200ca8:	6464                	ld	s1,200(s0)
    80200caa:	2072                	fld	ft0,280(sp)
    80200cac:	7825                	lui	a6,0xfffe9
    80200cae:	000a                	c.slli	zero,0x2
    80200cb0:	4150                	lw	a2,4(a0)
    80200cb2:	494e                	lw	s2,208(sp)
    80200cb4:	25203a43          	0x25203a43
    80200cb8:	64253a73          	csrrc	s4,0x642,a0
    80200cbc:	203a                	fld	ft0,392(sp)
    80200cbe:	6e75                	lui	t3,0x1d
    80200cc0:	6c61                	lui	s8,0x18
    80200cc2:	6769                	lui	a4,0x1a
    80200cc4:	656e                	ld	a0,216(sp)
    80200cc6:	2064                	fld	fs1,192(s0)
    80200cc8:	6176                	ld	sp,344(sp)
    80200cca:	6464                	ld	s1,200(s0)
    80200ccc:	2072                	fld	ft0,280(sp)
    80200cce:	7825                	lui	a6,0xfffe9
    80200cd0:	000a                	c.slli	zero,0x2

0000000080200cd2 <$d.1>:
    80200cd2:	3130                	fld	fa2,96(a0)
    80200cd4:	3332                	fld	ft6,296(sp)
    80200cd6:	3534                	fld	fa3,104(a0)
    80200cd8:	3736                	fld	fa4,360(sp)
    80200cda:	3938                	fld	fa4,112(a0)
    80200cdc:	6261                	lui	tp,0x18
    80200cde:	66656463          	bltu	a0,t1,80201346 <_binary_shell_bin_start+0x5e6>
    80200ce2:	5000                	lw	s0,32(s0)
    80200ce4:	4e41                	li	t3,16
    80200ce6:	4349                	li	t1,18
    80200ce8:	203a                	fld	ft0,392(sp)
    80200cea:	7325                	lui	t1,0xfffe9
    80200cec:	253a                	fld	fa0,392(sp)
    80200cee:	3a64                	fld	fs1,240(a2)
    80200cf0:	6e20                	ld	s0,88(a2)
    80200cf2:	7266206f          	j	80263418 <__free_ram+0x21418>
    80200cf6:	6565                	lui	a0,0x19
    80200cf8:	7020                	ld	s0,96(s0)
    80200cfa:	6f72                	ld	t5,280(sp)
    80200cfc:	73736563          	bltu	t1,s7,80201426 <_binary_shell_bin_start+0x6c6>
    80200d00:	7320                	ld	s0,96(a4)
    80200d02:	6f6c                	ld	a1,216(a4)
    80200d04:	7374                	ld	a3,224(a4)
    80200d06:	000a                	c.slli	zero,0x2
    80200d08:	4150                	lw	a2,4(a0)
    80200d0a:	494e                	lw	s2,208(sp)
    80200d0c:	25203a43          	0x25203a43
    80200d10:	64253a73          	csrrc	s4,0x642,a0
    80200d14:	203a                	fld	ft0,392(sp)
    80200d16:	6e75                	lui	t3,0x1d
    80200d18:	7865                	lui	a6,0xffff9
    80200d1a:	6570                	ld	a2,200(a0)
    80200d1c:	64657463          	bgeu	a0,t1,80201364 <_binary_shell_bin_start+0x604>
    80200d20:	7420                	ld	s0,104(s0)
    80200d22:	6172                	ld	sp,280(sp)
    80200d24:	2070                	fld	fa2,192(s0)
    80200d26:	75616373          	csrrsi	t1,0x756,2
    80200d2a:	253d6573          	csrrsi	a0,0x253,26
    80200d2e:	2c78                	fld	fa4,216(s0)
    80200d30:	7320                	ld	s0,96(a4)
    80200d32:	7674                	ld	a3,232(a2)
    80200d34:	6c61                	lui	s8,0x18
    80200d36:	253d                	addiw	a0,a0,15
    80200d38:	2c78                	fld	fa4,216(s0)
    80200d3a:	7320                	ld	s0,96(a4)
    80200d3c:	7065                	c.lui	zero,0xffff9
    80200d3e:	78253d63          	0x78253d63
    80200d42:	0a0a                	slli	s4,s4,0x2
	...

0000000080200d45 <$d.2>:
    80200d45:	4150                	lw	a2,4(a0)
    80200d47:	494e                	lw	s2,208(sp)
    80200d49:	25203a43          	0x25203a43
    80200d4d:	64253a73          	csrrc	s4,0x642,a0
    80200d51:	203a                	fld	ft0,392(sp)
    80200d53:	594d                	li	s2,-13
    80200d55:	5920                	lw	s0,112(a0)
    80200d57:	4549                	li	a0,18
    80200d59:	444c                	lw	a1,12(s0)
    80200d5b:	000a                	c.slli	zero,0x2

Disassembly of section .data:

0000000080200d60 <_binary_shell_bin_start>:
    80200d60:	01010537          	lui	a0,0x1010
    80200d64:	32050513          	addi	a0,a0,800 # 1010320 <_binary_shell_bin_size+0x1000000>
    80200d68:	812a                	mv	sp,a0
    80200d6a:	00000097          	auipc	ra,0x0
    80200d6e:	010080e7          	jalr	16(ra) # 80200d7a <_binary_shell_bin_start+0x1a>
    80200d72:	00000097          	auipc	ra,0x0
    80200d76:	064080e7          	jalr	100(ra) # 80200dd6 <_binary_shell_bin_start+0x76>
    80200d7a:	1141                	addi	sp,sp,-16
    80200d7c:	e406                	sd	ra,8(sp)
    80200d7e:	05300513          	li	a0,83
    80200d82:	00000097          	auipc	ra,0x0
    80200d86:	01c080e7          	jalr	28(ra) # 80200d9e <_binary_shell_bin_start+0x3e>
    80200d8a:	a001                	j	80200d8a <_binary_shell_bin_start+0x2a>
    80200d8c:	872a                	mv	a4,a0
    80200d8e:	852e                	mv	a0,a1
    80200d90:	85b2                	mv	a1,a2
    80200d92:	8636                	mv	a2,a3
    80200d94:	86ba                	mv	a3,a4
    80200d96:	00000073          	ecall
    80200d9a:	2501                	sext.w	a0,a0
    80200d9c:	8082                	ret
    80200d9e:	4685                	li	a3,1
    80200da0:	4581                	li	a1,0
    80200da2:	4601                	li	a2,0
    80200da4:	00000073          	ecall
    80200da8:	8082                	ret
    80200daa:	4689                	li	a3,2
    80200dac:	4501                	li	a0,0
    80200dae:	4581                	li	a1,0
    80200db0:	4601                	li	a2,0
    80200db2:	00000073          	ecall
    80200db6:	2501                	sext.w	a0,a0
    80200db8:	8082                	ret
    80200dba:	2501                	sext.w	a0,a0
    80200dbc:	2581                	sext.w	a1,a1
    80200dbe:	4691                	li	a3,4
    80200dc0:	00000073          	ecall
    80200dc4:	2501                	sext.w	a0,a0
    80200dc6:	8082                	ret
    80200dc8:	2501                	sext.w	a0,a0
    80200dca:	2581                	sext.w	a1,a1
    80200dcc:	4695                	li	a3,5
    80200dce:	00000073          	ecall
    80200dd2:	2501                	sext.w	a0,a0
    80200dd4:	8082                	ret
    80200dd6:	468d                	li	a3,3
    80200dd8:	4501                	li	a0,0
    80200dda:	4581                	li	a1,0
    80200ddc:	4601                	li	a2,0
    80200dde:	00000073          	ecall
    80200de2:	a001                	j	80200de2 <_binary_shell_bin_start+0x82>
    80200de4:	ca11                	beqz	a2,80200df8 <_binary_shell_bin_start+0x98>
    80200de6:	962a                	add	a2,a2,a0
    80200de8:	86aa                	mv	a3,a0
    80200dea:	00168713          	addi	a4,a3,1
    80200dee:	00b68023          	sb	a1,0(a3)
    80200df2:	86ba                	mv	a3,a4
    80200df4:	fec71be3          	bne	a4,a2,80200dea <_binary_shell_bin_start+0x8a>
    80200df8:	8082                	ret
    80200dfa:	ce09                	beqz	a2,80200e14 <_binary_shell_bin_start+0xb4>
    80200dfc:	962a                	add	a2,a2,a0
    80200dfe:	86aa                	mv	a3,a0
    80200e00:	0005c703          	lbu	a4,0(a1)
    80200e04:	0585                	addi	a1,a1,1
    80200e06:	00168793          	addi	a5,a3,1
    80200e0a:	00e68023          	sb	a4,0(a3)
    80200e0e:	86be                	mv	a3,a5
    80200e10:	fec798e3          	bne	a5,a2,80200e00 <_binary_shell_bin_start+0xa0>
    80200e14:	8082                	ret
    80200e16:	0005c603          	lbu	a2,0(a1)
    80200e1a:	86aa                	mv	a3,a0
    80200e1c:	ce01                	beqz	a2,80200e34 <_binary_shell_bin_start+0xd4>
    80200e1e:	0585                	addi	a1,a1,1
    80200e20:	872a                	mv	a4,a0
    80200e22:	00c70023          	sb	a2,0(a4) # 1a000 <_binary_shell_bin_size+0x9ce0>
    80200e26:	0005c603          	lbu	a2,0(a1)
    80200e2a:	00170693          	addi	a3,a4,1
    80200e2e:	0585                	addi	a1,a1,1
    80200e30:	8736                	mv	a4,a3
    80200e32:	fa65                	bnez	a2,80200e22 <_binary_shell_bin_start+0xc2>
    80200e34:	00068023          	sb	zero,0(a3)
    80200e38:	8082                	ret
    80200e3a:	00054603          	lbu	a2,0(a0)
    80200e3e:	c205                	beqz	a2,80200e5e <_binary_shell_bin_start+0xfe>
    80200e40:	0505                	addi	a0,a0,1
    80200e42:	0005c683          	lbu	a3,0(a1)
    80200e46:	0ff67713          	andi	a4,a2,255
    80200e4a:	00d71763          	bne	a4,a3,80200e58 <_binary_shell_bin_start+0xf8>
    80200e4e:	00054603          	lbu	a2,0(a0)
    80200e52:	0585                	addi	a1,a1,1
    80200e54:	0505                	addi	a0,a0,1
    80200e56:	f675                	bnez	a2,80200e42 <_binary_shell_bin_start+0xe2>
    80200e58:	0ff67513          	andi	a0,a2,255
    80200e5c:	a011                	j	80200e60 <_binary_shell_bin_start+0x100>
    80200e5e:	4501                	li	a0,0
    80200e60:	0005c583          	lbu	a1,0(a1)
    80200e64:	8d0d                	sub	a0,a0,a1
    80200e66:	8082                	ret
    80200e68:	7171                	addi	sp,sp,-176
    80200e6a:	f486                	sd	ra,104(sp)
    80200e6c:	f0a2                	sd	s0,96(sp)
    80200e6e:	eca6                	sd	s1,88(sp)
    80200e70:	e8ca                	sd	s2,80(sp)
    80200e72:	e4ce                	sd	s3,72(sp)
    80200e74:	e0d2                	sd	s4,64(sp)
    80200e76:	fc56                	sd	s5,56(sp)
    80200e78:	f85a                	sd	s6,48(sp)
    80200e7a:	f45e                	sd	s7,40(sp)
    80200e7c:	f062                	sd	s8,32(sp)
    80200e7e:	ec66                	sd	s9,24(sp)
    80200e80:	e86a                	sd	s10,16(sp)
    80200e82:	e46e                	sd	s11,8(sp)
    80200e84:	842a                	mv	s0,a0
    80200e86:	f546                	sd	a7,168(sp)
    80200e88:	f142                	sd	a6,160(sp)
    80200e8a:	ed3e                	sd	a5,152(sp)
    80200e8c:	e93a                	sd	a4,144(sp)
    80200e8e:	e536                	sd	a3,136(sp)
    80200e90:	e132                	sd	a2,128(sp)
    80200e92:	fcae                	sd	a1,120(sp)
    80200e94:	18a8                	addi	a0,sp,120
    80200e96:	e02a                	sd	a0,0(sp)
    80200e98:	02500a13          	li	s4,37
    80200e9c:	07200913          	li	s2,114
    80200ea0:	4b29                	li	s6,10
    80200ea2:	4aa5                	li	s5,9
    80200ea4:	ccccd537          	lui	a0,0xccccd
    80200ea8:	ccd50d13          	addi	s10,a0,-819 # ffffffffcccccccd <__free_ram_end+0xffffffff48a8accd>
    80200eac:	1d02                	slli	s10,s10,0x20
    80200eae:	07300b93          	li	s7,115
    80200eb2:	07800c13          	li	s8,120
    80200eb6:	01000537          	lui	a0,0x1000
    80200eba:	30450c93          	addi	s9,a0,772 # 1000304 <_binary_shell_bin_size+0xfeffe4>
    80200ebe:	a021                	j	80200ec6 <_binary_shell_bin_start+0x166>
    80200ec0:	16050d63          	beqz	a0,8020103a <_binary_shell_bin_start+0x2da>
    80200ec4:	0405                	addi	s0,s0,1
    80200ec6:	00044503          	lbu	a0,0(s0) # ffffffffffffd000 <__free_ram_end+0xffffffff7bdbb000>
    80200eca:	01450a63          	beq	a0,s4,80200ede <_binary_shell_bin_start+0x17e>
    80200ece:	16050c63          	beqz	a0,80201046 <_binary_shell_bin_start+0x2e6>
    80200ed2:	00000097          	auipc	ra,0x0
    80200ed6:	ecc080e7          	jalr	-308(ra) # 80200d9e <_binary_shell_bin_start+0x3e>
    80200eda:	0405                	addi	s0,s0,1
    80200edc:	b7ed                	j	80200ec6 <_binary_shell_bin_start+0x166>
    80200ede:	00144503          	lbu	a0,1(s0)
    80200ee2:	0405                	addi	s0,s0,1
    80200ee4:	02a94463          	blt	s2,a0,80200f0c <_binary_shell_bin_start+0x1ac>
    80200ee8:	ff4505e3          	beq	a0,s4,80200ed2 <_binary_shell_bin_start+0x172>
    80200eec:	06400593          	li	a1,100
    80200ef0:	fcb518e3          	bne	a0,a1,80200ec0 <_binary_shell_bin_start+0x160>
    80200ef4:	6502                	ld	a0,0(sp)
    80200ef6:	00850593          	addi	a1,a0,8
    80200efa:	e02e                	sd	a1,0(sp)
    80200efc:	00052d83          	lw	s11,0(a0)
    80200f00:	0e0dc463          	bltz	s11,80200fe8 <_binary_shell_bin_start+0x288>
    80200f04:	4505                	li	a0,1
    80200f06:	116de363          	bltu	s11,s6,8020100c <_binary_shell_bin_start+0x2ac>
    80200f0a:	a8d5                	j	80200ffe <_binary_shell_bin_start+0x29e>
    80200f0c:	0b750963          	beq	a0,s7,80200fbe <_binary_shell_bin_start+0x25e>
    80200f10:	fb851ae3          	bne	a0,s8,80200ec4 <_binary_shell_bin_start+0x164>
    80200f14:	6502                	ld	a0,0(sp)
    80200f16:	00850593          	addi	a1,a0,8
    80200f1a:	e02e                	sd	a1,0(sp)
    80200f1c:	00056483          	lwu	s1,0(a0)
    80200f20:	01c4d513          	srli	a0,s1,0x1c
    80200f24:	9566                	add	a0,a0,s9
    80200f26:	00054503          	lbu	a0,0(a0)
    80200f2a:	00000097          	auipc	ra,0x0
    80200f2e:	e74080e7          	jalr	-396(ra) # 80200d9e <_binary_shell_bin_start+0x3e>
    80200f32:	02449513          	slli	a0,s1,0x24
    80200f36:	9171                	srli	a0,a0,0x3c
    80200f38:	9566                	add	a0,a0,s9
    80200f3a:	00054503          	lbu	a0,0(a0)
    80200f3e:	00000097          	auipc	ra,0x0
    80200f42:	e60080e7          	jalr	-416(ra) # 80200d9e <_binary_shell_bin_start+0x3e>
    80200f46:	02849513          	slli	a0,s1,0x28
    80200f4a:	9171                	srli	a0,a0,0x3c
    80200f4c:	9566                	add	a0,a0,s9
    80200f4e:	00054503          	lbu	a0,0(a0)
    80200f52:	00000097          	auipc	ra,0x0
    80200f56:	e4c080e7          	jalr	-436(ra) # 80200d9e <_binary_shell_bin_start+0x3e>
    80200f5a:	02c49513          	slli	a0,s1,0x2c
    80200f5e:	9171                	srli	a0,a0,0x3c
    80200f60:	9566                	add	a0,a0,s9
    80200f62:	00054503          	lbu	a0,0(a0)
    80200f66:	00000097          	auipc	ra,0x0
    80200f6a:	e38080e7          	jalr	-456(ra) # 80200d9e <_binary_shell_bin_start+0x3e>
    80200f6e:	03049513          	slli	a0,s1,0x30
    80200f72:	9171                	srli	a0,a0,0x3c
    80200f74:	9566                	add	a0,a0,s9
    80200f76:	00054503          	lbu	a0,0(a0)
    80200f7a:	00000097          	auipc	ra,0x0
    80200f7e:	e24080e7          	jalr	-476(ra) # 80200d9e <_binary_shell_bin_start+0x3e>
    80200f82:	03449513          	slli	a0,s1,0x34
    80200f86:	9171                	srli	a0,a0,0x3c
    80200f88:	9566                	add	a0,a0,s9
    80200f8a:	00054503          	lbu	a0,0(a0)
    80200f8e:	00000097          	auipc	ra,0x0
    80200f92:	e10080e7          	jalr	-496(ra) # 80200d9e <_binary_shell_bin_start+0x3e>
    80200f96:	03849513          	slli	a0,s1,0x38
    80200f9a:	9171                	srli	a0,a0,0x3c
    80200f9c:	9566                	add	a0,a0,s9
    80200f9e:	00054503          	lbu	a0,0(a0)
    80200fa2:	00000097          	auipc	ra,0x0
    80200fa6:	dfc080e7          	jalr	-516(ra) # 80200d9e <_binary_shell_bin_start+0x3e>
    80200faa:	88bd                	andi	s1,s1,15
    80200fac:	94e6                	add	s1,s1,s9
    80200fae:	0004c503          	lbu	a0,0(s1)
    80200fb2:	00000097          	auipc	ra,0x0
    80200fb6:	dec080e7          	jalr	-532(ra) # 80200d9e <_binary_shell_bin_start+0x3e>
    80200fba:	0405                	addi	s0,s0,1
    80200fbc:	b729                	j	80200ec6 <_binary_shell_bin_start+0x166>
    80200fbe:	6502                	ld	a0,0(sp)
    80200fc0:	00850593          	addi	a1,a0,8
    80200fc4:	e02e                	sd	a1,0(sp)
    80200fc6:	6104                	ld	s1,0(a0)
    80200fc8:	0004c503          	lbu	a0,0(s1)
    80200fcc:	ee050ce3          	beqz	a0,80200ec4 <_binary_shell_bin_start+0x164>
    80200fd0:	0485                	addi	s1,s1,1
    80200fd2:	0ff57513          	andi	a0,a0,255
    80200fd6:	00000097          	auipc	ra,0x0
    80200fda:	dc8080e7          	jalr	-568(ra) # 80200d9e <_binary_shell_bin_start+0x3e>
    80200fde:	0004c503          	lbu	a0,0(s1)
    80200fe2:	0485                	addi	s1,s1,1
    80200fe4:	f57d                	bnez	a0,80200fd2 <_binary_shell_bin_start+0x272>
    80200fe6:	bdf9                	j	80200ec4 <_binary_shell_bin_start+0x164>
    80200fe8:	02d00513          	li	a0,45
    80200fec:	00000097          	auipc	ra,0x0
    80200ff0:	db2080e7          	jalr	-590(ra) # 80200d9e <_binary_shell_bin_start+0x3e>
    80200ff4:	41b00dbb          	negw	s11,s11
    80200ff8:	4505                	li	a0,1
    80200ffa:	016de963          	bltu	s11,s6,8020100c <_binary_shell_bin_start+0x2ac>
    80200ffe:	4505                	li	a0,1
    80201000:	0365053b          	mulw	a0,a0,s6
    80201004:	02add5bb          	divuw	a1,s11,a0
    80201008:	febaece3          	bltu	s5,a1,80201000 <_binary_shell_bin_start+0x2a0>
    8020100c:	84aa                	mv	s1,a0
    8020100e:	02add9bb          	divuw	s3,s11,a0
    80201012:	03098513          	addi	a0,s3,48
    80201016:	0ff57513          	andi	a0,a0,255
    8020101a:	00000097          	auipc	ra,0x0
    8020101e:	d84080e7          	jalr	-636(ra) # 80200d9e <_binary_shell_bin_start+0x3e>
    80201022:	02998533          	mul	a0,s3,s1
    80201026:	40ad8dbb          	subw	s11,s11,a0
    8020102a:	02049513          	slli	a0,s1,0x20
    8020102e:	03a53533          	mulhu	a0,a0,s10
    80201032:	910d                	srli	a0,a0,0x23
    80201034:	fd64fce3          	bgeu	s1,s6,8020100c <_binary_shell_bin_start+0x2ac>
    80201038:	b571                	j	80200ec4 <_binary_shell_bin_start+0x164>
    8020103a:	02500513          	li	a0,37
    8020103e:	00000097          	auipc	ra,0x0
    80201042:	d60080e7          	jalr	-672(ra) # 80200d9e <_binary_shell_bin_start+0x3e>
    80201046:	70a6                	ld	ra,104(sp)
    80201048:	7406                	ld	s0,96(sp)
    8020104a:	64e6                	ld	s1,88(sp)
    8020104c:	6946                	ld	s2,80(sp)
    8020104e:	69a6                	ld	s3,72(sp)
    80201050:	6a06                	ld	s4,64(sp)
    80201052:	7ae2                	ld	s5,56(sp)
    80201054:	7b42                	ld	s6,48(sp)
    80201056:	7ba2                	ld	s7,40(sp)
    80201058:	7c02                	ld	s8,32(sp)
    8020105a:	6ce2                	ld	s9,24(sp)
    8020105c:	6d42                	ld	s10,16(sp)
    8020105e:	6da2                	ld	s11,8(sp)
    80201060:	614d                	addi	sp,sp,176
    80201062:	8082                	ret
    80201064:	3130                	fld	fa2,96(a0)
    80201066:	3332                	fld	ft6,296(sp)
    80201068:	3534                	fld	fa3,104(a0)
    8020106a:	3736                	fld	fa4,360(sp)
    8020106c:	3938                	fld	fa4,112(a0)
    8020106e:	6261                	lui	tp,0x18
    80201070:	66656463          	bltu	a0,t1,802016d8 <_binary_shell_bin_start+0x978>
	...

Disassembly of section .sdata:

0000000080211080 <alloc_pages.next_paddr>:
    80211080:	2000                	fld	fs0,0(s0)
    80211082:	8024                	0x8024
    80211084:	0000                	unimp
	...

Disassembly of section .bss:

0000000080211088 <procs>:
	...

0000000080221148 <idle_proc>:
	...

0000000080221150 <current_proc>:
	...

0000000080221158 <proc_a>:
	...

0000000080221160 <proc_b>:
	...

Disassembly of section .debug_loc:

0000000000000000 <$d.6>:
       0:	ffff                	0xffff
       2:	ffff                	0xffff
       4:	ffff                	0xffff
       6:	ffff                	0xffff
       8:	0010                	0x10
       a:	8020                	0x8020
	...
      18:	0004                	0x4
      1a:	0000                	unimp
      1c:	0000                	unimp
      1e:	0000                	unimp
      20:	0001                	nop
      22:	005a                	c.slli	zero,0x16
	...
      30:	0000                	unimp
      32:	ff00                	sd	s0,56(a4)
      34:	ffff                	0xffff
      36:	ffff                	0xffff
      38:	ffff                	0xffff
      3a:	10ff                	0x10ff
      3c:	2000                	fld	fs0,0(s0)
      3e:	0080                	addi	s0,sp,64
	...
      48:	0000                	unimp
      4a:	0400                	addi	s0,sp,512
      4c:	0000                	unimp
      4e:	0000                	unimp
      50:	0000                	unimp
      52:	0100                	addi	s0,sp,128
      54:	5b00                	lw	s0,48(a4)
	...
      66:	ffff                	0xffff
      68:	ffff                	0xffff
      6a:	ffff                	0xffff
      6c:	ffff                	0xffff
      6e:	0010                	0x10
      70:	8020                	0x8020
      72:	0000                	unimp
      74:	0000                	unimp
      76:	0006                	c.slli	zero,0x1
      78:	0000                	unimp
      7a:	0000                	unimp
      7c:	0000                	unimp
      7e:	0018                	0x18
      80:	0000                	unimp
      82:	0000                	unimp
      84:	0000                	unimp
      86:	0001                	nop
      88:	005a                	c.slli	zero,0x16
	...
      96:	0000                	unimp
      98:	ff00                	sd	s0,56(a4)
      9a:	ffff                	0xffff
      9c:	ffff                	0xffff
      9e:	ffff                	0xffff
      a0:	10ff                	0x10ff
      a2:	2000                	fld	fs0,0(s0)
      a4:	0080                	addi	s0,sp,64
      a6:	0000                	unimp
      a8:	0600                	addi	s0,sp,768
      aa:	0000                	unimp
      ac:	0000                	unimp
      ae:	0000                	unimp
      b0:	1800                	addi	s0,sp,48
      b2:	0000                	unimp
      b4:	0000                	unimp
      b6:	0000                	unimp
      b8:	0300                	addi	s0,sp,384
      ba:	1100                	addi	s0,sp,160
      bc:	9f00                	0x9f00
	...
      ce:	ffff                	0xffff
      d0:	ffff                	0xffff
      d2:	ffff                	0xffff
      d4:	ffff                	0xffff
      d6:	0010                	0x10
      d8:	8020                	0x8020
      da:	0000                	unimp
      dc:	0000                	unimp
      de:	001a                	c.slli	zero,0x6
      e0:	0000                	unimp
      e2:	0000                	unimp
      e4:	0000                	unimp
      e6:	002e                	c.slli	zero,0xb
      e8:	0000                	unimp
      ea:	0000                	unimp
      ec:	0000                	unimp
      ee:	00110003          	lb	zero,1(sp)
      f2:	2e9f 0000 0000      	0x2e9f
      f8:	0000                	unimp
      fa:	3000                	fld	fs0,32(s0)
      fc:	0000                	unimp
      fe:	0000                	unimp
     100:	0000                	unimp
     102:	0100                	addi	s0,sp,128
     104:	5a00                	lw	s0,48(a2)
	...
     116:	ffff                	0xffff
     118:	ffff                	0xffff
     11a:	ffff                	0xffff
     11c:	ffff                	0xffff
     11e:	0010                	0x10
     120:	8020                	0x8020
     122:	0000                	unimp
     124:	0000                	unimp
     126:	001a                	c.slli	zero,0x6
     128:	0000                	unimp
     12a:	0000                	unimp
     12c:	0000                	unimp
     12e:	002e                	c.slli	zero,0xb
     130:	0000                	unimp
     132:	0000                	unimp
     134:	0000                	unimp
     136:	00110003          	lb	zero,1(sp)
     13a:	009f 0000 0000      	0x9f
	...
     148:	0000                	unimp
     14a:	ff00                	sd	s0,56(a4)
     14c:	ffff                	0xffff
     14e:	ffff                	0xffff
     150:	ffff                	0xffff
     152:	10ff                	0x10ff
     154:	2000                	fld	fs0,0(s0)
     156:	0080                	addi	s0,sp,64
     158:	0000                	unimp
     15a:	2e00                	fld	fs0,24(a2)
     15c:	0000                	unimp
     15e:	0000                	unimp
     160:	0000                	unimp
     162:	3000                	fld	fs0,32(s0)
     164:	0000                	unimp
     166:	0000                	unimp
     168:	0000                	unimp
     16a:	0300                	addi	s0,sp,384
     16c:	5a00                	lw	s0,48(a2)
     16e:	00000893          	li	a7,0
	...
     17e:	0000                	unimp
     180:	ffff                	0xffff
     182:	ffff                	0xffff
     184:	ffff                	0xffff
     186:	ffff                	0xffff
     188:	0010                	0x10
     18a:	8020                	0x8020
     18c:	0000                	unimp
     18e:	0000                	unimp
     190:	0134                	addi	a3,sp,136
     192:	0000                	unimp
     194:	0000                	unimp
     196:	0000                	unimp
     198:	014a                	slli	sp,sp,0x12
     19a:	0000                	unimp
     19c:	0000                	unimp
     19e:	0000                	unimp
     1a0:	0001                	nop
     1a2:	005a                	c.slli	zero,0x16
	...
     1b0:	0000                	unimp
     1b2:	ff00                	sd	s0,56(a4)
     1b4:	ffff                	0xffff
     1b6:	ffff                	0xffff
     1b8:	ffff                	0xffff
     1ba:	10ff                	0x10ff
     1bc:	2000                	fld	fs0,0(s0)
     1be:	0080                	addi	s0,sp,64
     1c0:	0000                	unimp
     1c2:	4200                	lw	s0,0(a2)
     1c4:	0001                	nop
     1c6:	0000                	unimp
     1c8:	0000                	unimp
     1ca:	8a00                	0x8a00
     1cc:	0001                	nop
     1ce:	0000                	unimp
     1d0:	0000                	unimp
     1d2:	0100                	addi	s0,sp,128
     1d4:	5800                	lw	s0,48(s0)
	...
     1e6:	ffff                	0xffff
     1e8:	ffff                	0xffff
     1ea:	ffff                	0xffff
     1ec:	ffff                	0xffff
     1ee:	0010                	0x10
     1f0:	8020                	0x8020
     1f2:	0000                	unimp
     1f4:	0000                	unimp
     1f6:	018e                	slli	gp,gp,0x3
     1f8:	0000                	unimp
     1fa:	0000                	unimp
     1fc:	0000                	unimp
     1fe:	01a6                	slli	gp,gp,0x9
     200:	0000                	unimp
     202:	0000                	unimp
     204:	0000                	unimp
     206:	0001                	nop
     208:	c25a                	sw	s6,4(sp)
     20a:	0001                	nop
     20c:	0000                	unimp
     20e:	0000                	unimp
     210:	ce00                	sw	s0,24(a2)
     212:	0001                	nop
     214:	0000                	unimp
     216:	0000                	unimp
     218:	0100                	addi	s0,sp,128
     21a:	5a00                	lw	s0,48(a2)
     21c:	01ea                	slli	gp,gp,0x1a
     21e:	0000                	unimp
     220:	0000                	unimp
     222:	0000                	unimp
     224:	01f8                	addi	a4,sp,204
     226:	0000                	unimp
     228:	0000                	unimp
     22a:	0000                	unimp
     22c:	0001                	nop
     22e:	005a                	c.slli	zero,0x16
	...
     23c:	0000                	unimp
     23e:	ff00                	sd	s0,56(a4)
     240:	ffff                	0xffff
     242:	ffff                	0xffff
     244:	ffff                	0xffff
     246:	10ff                	0x10ff
     248:	2000                	fld	fs0,0(s0)
     24a:	0080                	addi	s0,sp,64
     24c:	0000                	unimp
     24e:	8e00                	0x8e00
     250:	0001                	nop
     252:	0000                	unimp
     254:	0000                	unimp
     256:	9e00                	0x9e00
     258:	0001                	nop
     25a:	0000                	unimp
     25c:	0000                	unimp
     25e:	0100                	addi	s0,sp,128
     260:	5b00                	lw	s0,48(a4)
     262:	019e                	slli	gp,gp,0x7
     264:	0000                	unimp
     266:	0000                	unimp
     268:	0000                	unimp
     26a:	02d8                	addi	a4,sp,324
     26c:	0000                	unimp
     26e:	0000                	unimp
     270:	0000                	unimp
     272:	0001                	nop
     274:	0058                	addi	a4,sp,4
	...
     282:	0000                	unimp
     284:	ff00                	sd	s0,56(a4)
     286:	ffff                	0xffff
     288:	ffff                	0xffff
     28a:	ffff                	0xffff
     28c:	10ff                	0x10ff
     28e:	2000                	fld	fs0,0(s0)
     290:	0080                	addi	s0,sp,64
     292:	0000                	unimp
     294:	8e00                	0x8e00
     296:	0001                	nop
     298:	0000                	unimp
     29a:	0000                	unimp
     29c:	b600                	fsd	fs0,40(a2)
     29e:	0001                	nop
     2a0:	0000                	unimp
     2a2:	0000                	unimp
     2a4:	0100                	addi	s0,sp,128
     2a6:	5c00                	lw	s0,56(s0)
     2a8:	01c2                	slli	gp,gp,0x10
     2aa:	0000                	unimp
     2ac:	0000                	unimp
     2ae:	0000                	unimp
     2b0:	01e0                	addi	s0,sp,204
     2b2:	0000                	unimp
     2b4:	0000                	unimp
     2b6:	0000                	unimp
     2b8:	0001                	nop
     2ba:	ea5c                	sd	a5,144(a2)
     2bc:	0001                	nop
     2be:	0000                	unimp
     2c0:	0000                	unimp
     2c2:	2e00                	fld	fs0,24(a2)
     2c4:	0002                	c.slli64	zero
     2c6:	0000                	unimp
     2c8:	0000                	unimp
     2ca:	0100                	addi	s0,sp,128
     2cc:	5c00                	lw	s0,56(s0)
     2ce:	0238                	addi	a4,sp,264
     2d0:	0000                	unimp
     2d2:	0000                	unimp
     2d4:	0000                	unimp
     2d6:	023a                	slli	tp,tp,0xe
     2d8:	0000                	unimp
     2da:	0000                	unimp
     2dc:	0000                	unimp
     2de:	0001                	nop
     2e0:	3a5c                	fld	fa5,176(a2)
     2e2:	0002                	c.slli64	zero
     2e4:	0000                	unimp
     2e6:	0000                	unimp
     2e8:	5800                	lw	s0,48(s0)
     2ea:	0002                	c.slli64	zero
     2ec:	0000                	unimp
     2ee:	0000                	unimp
     2f0:	0100                	addi	s0,sp,128
     2f2:	6300                	ld	s0,0(a4)
	...
     304:	ffff                	0xffff
     306:	ffff                	0xffff
     308:	ffff                	0xffff
     30a:	ffff                	0xffff
     30c:	0010                	0x10
     30e:	8020                	0x8020
     310:	0000                	unimp
     312:	0000                	unimp
     314:	018e                	slli	gp,gp,0x3
     316:	0000                	unimp
     318:	0000                	unimp
     31a:	0000                	unimp
     31c:	01b8                	addi	a4,sp,200
     31e:	0000                	unimp
     320:	0000                	unimp
     322:	0000                	unimp
     324:	0001                	nop
     326:	c25d                	beqz	a2,3cc <$d.3+0xa7>
     328:	0001                	nop
     32a:	0000                	unimp
     32c:	0000                	unimp
     32e:	dc00                	sw	s0,56(s0)
     330:	0001                	nop
     332:	0000                	unimp
     334:	0000                	unimp
     336:	0100                	addi	s0,sp,128
     338:	5d00                	lw	s0,56(a0)
     33a:	01ea                	slli	gp,gp,0x1a
     33c:	0000                	unimp
     33e:	0000                	unimp
     340:	0000                	unimp
     342:	0236                	slli	tp,tp,0xd
     344:	0000                	unimp
     346:	0000                	unimp
     348:	0000                	unimp
     34a:	0001                	nop
     34c:	385d                	addiw	a6,a6,-9
     34e:	0002                	c.slli64	zero
     350:	0000                	unimp
     352:	0000                	unimp
     354:	4200                	lw	s0,0(a2)
     356:	0002                	c.slli64	zero
     358:	0000                	unimp
     35a:	0000                	unimp
     35c:	0100                	addi	s0,sp,128
     35e:	5d00                	lw	s0,56(a0)
     360:	0242                	slli	tp,tp,0x10
     362:	0000                	unimp
     364:	0000                	unimp
     366:	0000                	unimp
     368:	0258                	addi	a4,sp,260
     36a:	0000                	unimp
     36c:	0000                	unimp
     36e:	0000                	unimp
     370:	0001                	nop
     372:	0064                	addi	s1,sp,12
	...
     380:	0000                	unimp
     382:	ff00                	sd	s0,56(a4)
     384:	ffff                	0xffff
     386:	ffff                	0xffff
     388:	ffff                	0xffff
     38a:	10ff                	0x10ff
     38c:	2000                	fld	fs0,0(s0)
     38e:	0080                	addi	s0,sp,64
     390:	0000                	unimp
     392:	a000                	fsd	fs0,0(s0)
     394:	0001                	nop
     396:	0000                	unimp
     398:	0000                	unimp
     39a:	ca00                	sw	s0,16(a2)
     39c:	0002                	c.slli64	zero
     39e:	0000                	unimp
     3a0:	0000                	unimp
     3a2:	0900                	addi	s0,sp,144
     3a4:	7800                	ld	s0,48(s0)
     3a6:	3c00                	fld	fs0,56(s0)
     3a8:	1025                	c.nop	-23
     3aa:	03ff                	0x3ff
     3ac:	9f1a                	add	t5,t5,t1
	...
     3be:	ffff                	0xffff
     3c0:	ffff                	0xffff
     3c2:	ffff                	0xffff
     3c4:	ffff                	0xffff
     3c6:	0010                	0x10
     3c8:	8020                	0x8020
     3ca:	0000                	unimp
     3cc:	0000                	unimp
     3ce:	025e                	slli	tp,tp,0x17
     3d0:	0000                	unimp
     3d2:	0000                	unimp
     3d4:	0000                	unimp
     3d6:	0264                	addi	s1,sp,268
     3d8:	0000                	unimp
     3da:	0000                	unimp
     3dc:	0000                	unimp
     3de:	0001                	nop
     3e0:	0000005b          	0x5b
	...
     3f0:	ff00                	sd	s0,56(a4)
     3f2:	ffff                	0xffff
     3f4:	ffff                	0xffff
     3f6:	ffff                	0xffff
     3f8:	10ff                	0x10ff
     3fa:	2000                	fld	fs0,0(s0)
     3fc:	0080                	addi	s0,sp,64
     3fe:	0000                	unimp
     400:	f000                	sd	s0,32(s0)
     402:	0001                	nop
     404:	0000                	unimp
     406:	0000                	unimp
     408:	f200                	sd	s0,32(a2)
     40a:	0001                	nop
     40c:	0000                	unimp
     40e:	0000                	unimp
     410:	0100                	addi	s0,sp,128
     412:	5b00                	lw	s0,48(a4)
	...
     424:	ffff                	0xffff
     426:	ffff                	0xffff
     428:	ffff                	0xffff
     42a:	ffff                	0xffff
     42c:	0010                	0x10
     42e:	8020                	0x8020
     430:	0000                	unimp
     432:	0000                	unimp
     434:	0206                	slli	tp,tp,0x1
     436:	0000                	unimp
     438:	0000                	unimp
     43a:	0000                	unimp
     43c:	0258                	addi	a4,sp,260
     43e:	0000                	unimp
     440:	0000                	unimp
     442:	0000                	unimp
     444:	0001                	nop
     446:	0062                	c.slli	zero,0x18
	...
     454:	0000                	unimp
     456:	ff00                	sd	s0,56(a4)
     458:	ffff                	0xffff
     45a:	ffff                	0xffff
     45c:	ffff                	0xffff
     45e:	10ff                	0x10ff
     460:	2000                	fld	fs0,0(s0)
     462:	0080                	addi	s0,sp,64
     464:	0000                	unimp
     466:	4e00                	lw	s0,24(a2)
     468:	0002                	c.slli64	zero
     46a:	0000                	unimp
     46c:	0000                	unimp
     46e:	5800                	lw	s0,48(s0)
     470:	0002                	c.slli64	zero
     472:	0000                	unimp
     474:	0000                	unimp
     476:	0100                	addi	s0,sp,128
     478:	6200                	ld	s0,0(a2)
	...
     48a:	ffff                	0xffff
     48c:	ffff                	0xffff
     48e:	ffff                	0xffff
     490:	ffff                	0xffff
     492:	0010                	0x10
     494:	8020                	0x8020
     496:	0000                	unimp
     498:	0000                	unimp
     49a:	0262                	slli	tp,tp,0x18
     49c:	0000                	unimp
     49e:	0000                	unimp
     4a0:	0000                	unimp
     4a2:	026a                	slli	tp,tp,0x1a
     4a4:	0000                	unimp
     4a6:	0000                	unimp
     4a8:	0000                	unimp
     4aa:	0001                	nop
     4ac:	005a                	c.slli	zero,0x16
	...
     4ba:	0000                	unimp
     4bc:	ff00                	sd	s0,56(a4)
     4be:	ffff                	0xffff
     4c0:	ffff                	0xffff
     4c2:	ffff                	0xffff
     4c4:	10ff                	0x10ff
     4c6:	2000                	fld	fs0,0(s0)
     4c8:	0080                	addi	s0,sp,64
     4ca:	0000                	unimp
     4cc:	7800                	ld	s0,48(s0)
     4ce:	0002                	c.slli64	zero
     4d0:	0000                	unimp
     4d2:	0000                	unimp
     4d4:	ca00                	sw	s0,16(a2)
     4d6:	0002                	c.slli64	zero
     4d8:	0000                	unimp
     4da:	0000                	unimp
     4dc:	0100                	addi	s0,sp,128
     4de:	6200                	ld	s0,0(a2)
	...
     4f0:	ffff                	0xffff
     4f2:	ffff                	0xffff
     4f4:	ffff                	0xffff
     4f6:	ffff                	0xffff
     4f8:	0010                	0x10
     4fa:	8020                	0x8020
     4fc:	0000                	unimp
     4fe:	0000                	unimp
     500:	02c0                	addi	s0,sp,324
     502:	0000                	unimp
     504:	0000                	unimp
     506:	0000                	unimp
     508:	02ca                	slli	t0,t0,0x12
     50a:	0000                	unimp
     50c:	0000                	unimp
     50e:	0000                	unimp
     510:	0001                	nop
     512:	0062                	c.slli	zero,0x18
	...
     520:	0000                	unimp
     522:	ff00                	sd	s0,56(a4)
     524:	ffff                	0xffff
     526:	ffff                	0xffff
     528:	ffff                	0xffff
     52a:	10ff                	0x10ff
     52c:	2000                	fld	fs0,0(s0)
     52e:	0080                	addi	s0,sp,64
     530:	0000                	unimp
     532:	ce00                	sw	s0,24(a2)
     534:	0002                	c.slli64	zero
     536:	0000                	unimp
     538:	0000                	unimp
     53a:	e000                	sd	s0,0(s0)
     53c:	0002                	c.slli64	zero
     53e:	0000                	unimp
     540:	0000                	unimp
     542:	0100                	addi	s0,sp,128
     544:	5a00                	lw	s0,48(a2)
	...
     556:	ffff                	0xffff
     558:	ffff                	0xffff
     55a:	ffff                	0xffff
     55c:	ffff                	0xffff
     55e:	0010                	0x10
     560:	8020                	0x8020
     562:	0000                	unimp
     564:	0000                	unimp
     566:	0306                	slli	t1,t1,0x1
     568:	0000                	unimp
     56a:	0000                	unimp
     56c:	0000                	unimp
     56e:	0332                	slli	t1,t1,0xc
     570:	0000                	unimp
     572:	0000                	unimp
     574:	0000                	unimp
     576:	0001                	nop
     578:	325a                	fld	ft4,432(sp)
     57a:	00000003          	lb	zero,0(zero) # 0 <$d.6>
     57e:	0000                	unimp
     580:	fa00                	sd	s0,48(a2)
     582:	0004                	0x4
     584:	0000                	unimp
     586:	0000                	unimp
     588:	0100                	addi	s0,sp,128
     58a:	6200                	ld	s0,0(a2)
     58c:	0510                	addi	a2,sp,640
     58e:	0000                	unimp
     590:	0000                	unimp
     592:	0000                	unimp
     594:	052e                	slli	a0,a0,0xb
     596:	0000                	unimp
     598:	0000                	unimp
     59a:	0000                	unimp
     59c:	0001                	nop
     59e:	0062                	c.slli	zero,0x18
	...
     5ac:	0000                	unimp
     5ae:	ff00                	sd	s0,56(a4)
     5b0:	ffff                	0xffff
     5b2:	ffff                	0xffff
     5b4:	ffff                	0xffff
     5b6:	10ff                	0x10ff
     5b8:	2000                	fld	fs0,0(s0)
     5ba:	0080                	addi	s0,sp,64
     5bc:	0000                	unimp
     5be:	0600                	addi	s0,sp,768
     5c0:	00000003          	lb	zero,0(zero) # 0 <$d.6>
     5c4:	0000                	unimp
     5c6:	3000                	fld	fs0,32(s0)
     5c8:	00000003          	lb	zero,0(zero) # 0 <$d.6>
     5cc:	0000                	unimp
     5ce:	0100                	addi	s0,sp,128
     5d0:	5b00                	lw	s0,48(a4)
     5d2:	0330                	addi	a2,sp,392
     5d4:	0000                	unimp
     5d6:	0000                	unimp
     5d8:	0000                	unimp
     5da:	0500                	addi	s0,sp,640
     5dc:	0000                	unimp
     5de:	0000                	unimp
     5e0:	0000                	unimp
     5e2:	0001                	nop
     5e4:	1065                	c.nop	-7
     5e6:	0005                	c.nop	1
     5e8:	0000                	unimp
     5ea:	0000                	unimp
     5ec:	2e00                	fld	fs0,24(a2)
     5ee:	0005                	c.nop	1
     5f0:	0000                	unimp
     5f2:	0000                	unimp
     5f4:	0100                	addi	s0,sp,128
     5f6:	6500                	ld	s0,8(a0)
	...
     608:	ffff                	0xffff
     60a:	ffff                	0xffff
     60c:	ffff                	0xffff
     60e:	ffff                	0xffff
     610:	0010                	0x10
     612:	8020                	0x8020
     614:	0000                	unimp
     616:	0000                	unimp
     618:	0332                	slli	t1,t1,0xc
     61a:	0000                	unimp
     61c:	0000                	unimp
     61e:	0000                	unimp
     620:	0334                	addi	a3,sp,392
     622:	0000                	unimp
     624:	0000                	unimp
     626:	0000                	unimp
     628:	00110003          	lb	zero,1(sp)
     62c:	349f 0003 0000      	0x3349f
     632:	0000                	unimp
     634:	3c00                	fld	fs0,56(s0)
     636:	00000003          	lb	zero,0(zero) # 0 <$d.6>
     63a:	0000                	unimp
     63c:	0300                	addi	s0,sp,384
     63e:	1100                	addi	s0,sp,160
     640:	9f01                	subw	a4,a4,s0
     642:	033c                	addi	a5,sp,392
     644:	0000                	unimp
     646:	0000                	unimp
     648:	0000                	unimp
     64a:	0344                	addi	s1,sp,388
     64c:	0000                	unimp
     64e:	0000                	unimp
     650:	0000                	unimp
     652:	02110003          	lb	zero,33(sp)
     656:	449f 0003 0000      	0x3449f
     65c:	0000                	unimp
     65e:	4c00                	lw	s0,24(s0)
     660:	00000003          	lb	zero,0(zero) # 0 <$d.6>
     664:	0000                	unimp
     666:	0300                	addi	s0,sp,384
     668:	1100                	addi	s0,sp,160
     66a:	034c9f03          	lh	t5,52(s9)
     66e:	0000                	unimp
     670:	0000                	unimp
     672:	0000                	unimp
     674:	0354                	addi	a3,sp,388
     676:	0000                	unimp
     678:	0000                	unimp
     67a:	0000                	unimp
     67c:	04110003          	lb	zero,65(sp)
     680:	549f 0003 0000      	0x3549f
     686:	0000                	unimp
     688:	5c00                	lw	s0,56(s0)
     68a:	00000003          	lb	zero,0(zero) # 0 <$d.6>
     68e:	0000                	unimp
     690:	0300                	addi	s0,sp,384
     692:	1100                	addi	s0,sp,160
     694:	9f05                	subw	a4,a4,s1
     696:	035c                	addi	a5,sp,388
     698:	0000                	unimp
     69a:	0000                	unimp
     69c:	0000                	unimp
     69e:	0366                	slli	t1,t1,0x19
     6a0:	0000                	unimp
     6a2:	0000                	unimp
     6a4:	0000                	unimp
     6a6:	06110003          	lb	zero,97(sp)
     6aa:	669f 0003 0000      	0x3669f
     6b0:	0000                	unimp
     6b2:	7000                	ld	s0,32(s0)
     6b4:	00000003          	lb	zero,0(zero) # 0 <$d.6>
     6b8:	0000                	unimp
     6ba:	0300                	addi	s0,sp,384
     6bc:	1100                	addi	s0,sp,160
     6be:	03709f07          	0x3709f07
     6c2:	0000                	unimp
     6c4:	0000                	unimp
     6c6:	0000                	unimp
     6c8:	038e                	slli	t2,t2,0x3
     6ca:	0000                	unimp
     6cc:	0000                	unimp
     6ce:	0000                	unimp
     6d0:	08110003          	lb	zero,129(sp)
     6d4:	8e9f 0003 0000      	0x38e9f
     6da:	0000                	unimp
     6dc:	9200                	0x9200
     6de:	00000003          	lb	zero,0(zero) # 0 <$d.6>
     6e2:	0000                	unimp
     6e4:	0300                	addi	s0,sp,384
     6e6:	1100                	addi	s0,sp,160
     6e8:	9f00                	0x9f00
     6ea:	0392                	slli	t2,t2,0x4
     6ec:	0000                	unimp
     6ee:	0000                	unimp
     6f0:	0000                	unimp
     6f2:	0396                	slli	t2,t2,0x5
     6f4:	0000                	unimp
     6f6:	0000                	unimp
     6f8:	0000                	unimp
     6fa:	01110003          	lb	zero,17(sp)
     6fe:	969f 0003 0000      	0x3969f
     704:	0000                	unimp
     706:	9a00                	0x9a00
     708:	00000003          	lb	zero,0(zero) # 0 <$d.6>
     70c:	0000                	unimp
     70e:	0300                	addi	s0,sp,384
     710:	1100                	addi	s0,sp,160
     712:	9f02                	jalr	t5
     714:	039a                	slli	t2,t2,0x6
     716:	0000                	unimp
     718:	0000                	unimp
     71a:	0000                	unimp
     71c:	039e                	slli	t2,t2,0x7
     71e:	0000                	unimp
     720:	0000                	unimp
     722:	0000                	unimp
     724:	03110003          	lb	zero,49(sp)
     728:	9e9f 0003 0000      	0x39e9f
     72e:	0000                	unimp
     730:	a200                	fsd	fs0,0(a2)
     732:	00000003          	lb	zero,0(zero) # 0 <$d.6>
     736:	0000                	unimp
     738:	0300                	addi	s0,sp,384
     73a:	1100                	addi	s0,sp,160
     73c:	9f04                	0x9f04
     73e:	03a2                	slli	t2,t2,0x8
     740:	0000                	unimp
     742:	0000                	unimp
     744:	0000                	unimp
     746:	03a6                	slli	t2,t2,0x9
     748:	0000                	unimp
     74a:	0000                	unimp
     74c:	0000                	unimp
     74e:	05110003          	lb	zero,81(sp)
     752:	a69f 0003 0000      	0x3a69f
     758:	0000                	unimp
     75a:	aa00                	fsd	fs0,16(a2)
     75c:	00000003          	lb	zero,0(zero) # 0 <$d.6>
     760:	0000                	unimp
     762:	0300                	addi	s0,sp,384
     764:	1100                	addi	s0,sp,160
     766:	9f06                	add	t5,t5,ra
     768:	03aa                	slli	t2,t2,0xa
     76a:	0000                	unimp
     76c:	0000                	unimp
     76e:	0000                	unimp
     770:	03ac                	addi	a1,sp,456
     772:	0000                	unimp
     774:	0000                	unimp
     776:	0000                	unimp
     778:	07110003          	lb	zero,113(sp)
     77c:	009f 0000 0000      	0x9f
	...
     78a:	0000                	unimp
     78c:	ff00                	sd	s0,56(a4)
     78e:	ffff                	0xffff
     790:	ffff                	0xffff
     792:	ffff                	0xffff
     794:	10ff                	0x10ff
     796:	2000                	fld	fs0,0(s0)
     798:	0080                	addi	s0,sp,64
     79a:	0000                	unimp
     79c:	3200                	fld	fs0,32(a2)
     79e:	00000003          	lb	zero,0(zero) # 0 <$d.6>
     7a2:	0000                	unimp
     7a4:	ac00                	fsd	fs0,24(s0)
     7a6:	00000003          	lb	zero,0(zero) # 0 <$d.6>
     7aa:	0000                	unimp
     7ac:	0200                	addi	s0,sp,256
     7ae:	3000                	fld	fs0,32(s0)
     7b0:	e29f 0004 0000      	0x4e29f
     7b6:	0000                	unimp
     7b8:	1000                	addi	s0,sp,32
     7ba:	0005                	c.nop	1
     7bc:	0000                	unimp
     7be:	0000                	unimp
     7c0:	0100                	addi	s0,sp,128
     7c2:	5a00                	lw	s0,48(a2)
	...
     7d4:	ffff                	0xffff
     7d6:	ffff                	0xffff
     7d8:	ffff                	0xffff
     7da:	ffff                	0xffff
     7dc:	0010                	0x10
     7de:	8020                	0x8020
     7e0:	0000                	unimp
     7e2:	0000                	unimp
     7e4:	03b8                	addi	a4,sp,456
     7e6:	0000                	unimp
     7e8:	0000                	unimp
     7ea:	0000                	unimp
     7ec:	03f4                	addi	a3,sp,460
     7ee:	0000                	unimp
     7f0:	0000                	unimp
     7f2:	0000                	unimp
     7f4:	0005                	c.nop	1
     7f6:	00c0907b          	0xc0907b
     7fa:	f49f 0003 0000      	0x3f49f
     800:	0000                	unimp
     802:	2e00                	fld	fs0,24(a2)
     804:	0004                	0x4
     806:	0000                	unimp
     808:	0000                	unimp
     80a:	0100                	addi	s0,sp,128
     80c:	5c00                	lw	s0,56(s0)
     80e:	0438                	addi	a4,sp,520
     810:	0000                	unimp
     812:	0000                	unimp
     814:	0000                	unimp
     816:	043a                	slli	s0,s0,0xe
     818:	0000                	unimp
     81a:	0000                	unimp
     81c:	0000                	unimp
     81e:	0001                	nop
     820:	3a5c                	fld	fa5,176(a2)
     822:	0004                	0x4
     824:	0000                	unimp
     826:	0000                	unimp
     828:	e200                	sd	s0,0(a2)
     82a:	0004                	0x4
     82c:	0000                	unimp
     82e:	0000                	unimp
     830:	0200                	addi	s0,sp,256
     832:	7200                	ld	s0,32(a2)
     834:	e208                	sd	a0,0(a2)
     836:	0004                	0x4
     838:	0000                	unimp
     83a:	0000                	unimp
     83c:	1000                	addi	s0,sp,32
     83e:	0005                	c.nop	1
     840:	0000                	unimp
     842:	0000                	unimp
     844:	0500                	addi	s0,sp,640
     846:	7a00                	ld	s0,48(a2)
     848:	c098                	sw	a4,0(s1)
     84a:	9f00                	0x9f00
     84c:	0510                	addi	a2,sp,640
     84e:	0000                	unimp
     850:	0000                	unimp
     852:	0000                	unimp
     854:	052e                	slli	a0,a0,0xb
     856:	0000                	unimp
     858:	0000                	unimp
     85a:	0000                	unimp
     85c:	0002                	c.slli64	zero
     85e:	0872                	slli	a6,a6,0x1c
	...
     870:	ffff                	0xffff
     872:	ffff                	0xffff
     874:	ffff                	0xffff
     876:	ffff                	0xffff
     878:	0010                	0x10
     87a:	8020                	0x8020
     87c:	0000                	unimp
     87e:	0000                	unimp
     880:	0400                	addi	s0,sp,512
     882:	0000                	unimp
     884:	0000                	unimp
     886:	0000                	unimp
     888:	0458                	addi	a4,sp,516
     88a:	0000                	unimp
     88c:	0000                	unimp
     88e:	0000                	unimp
     890:	0001                	nop
     892:	0068                	addi	a0,sp,12
	...
     8a0:	0000                	unimp
     8a2:	ff00                	sd	s0,56(a4)
     8a4:	ffff                	0xffff
     8a6:	ffff                	0xffff
     8a8:	ffff                	0xffff
     8aa:	10ff                	0x10ff
     8ac:	2000                	fld	fs0,0(s0)
     8ae:	0080                	addi	s0,sp,64
     8b0:	0000                	unimp
     8b2:	0800                	addi	s0,sp,16
     8b4:	0004                	0x4
     8b6:	0000                	unimp
     8b8:	0000                	unimp
     8ba:	5800                	lw	s0,48(s0)
     8bc:	0004                	0x4
     8be:	0000                	unimp
     8c0:	0000                	unimp
     8c2:	0200                	addi	s0,sp,256
     8c4:	3100                	fld	fs0,32(a0)
     8c6:	009f 0000 0000      	0x9f
	...
     8d4:	0000                	unimp
     8d6:	ff00                	sd	s0,56(a4)
     8d8:	ffff                	0xffff
     8da:	ffff                	0xffff
     8dc:	ffff                	0xffff
     8de:	10ff                	0x10ff
     8e0:	2000                	fld	fs0,0(s0)
     8e2:	0080                	addi	s0,sp,64
     8e4:	0000                	unimp
     8e6:	4c00                	lw	s0,24(s0)
     8e8:	0004                	0x4
     8ea:	0000                	unimp
     8ec:	0000                	unimp
     8ee:	0600                	addi	s0,sp,768
     8f0:	0005                	c.nop	1
     8f2:	0000                	unimp
     8f4:	0000                	unimp
     8f6:	0100                	addi	s0,sp,128
     8f8:	6800                	ld	s0,16(s0)
     8fa:	0510                	addi	a2,sp,640
     8fc:	0000                	unimp
     8fe:	0000                	unimp
     900:	0000                	unimp
     902:	052e                	slli	a0,a0,0xb
     904:	0000                	unimp
     906:	0000                	unimp
     908:	0000                	unimp
     90a:	0001                	nop
     90c:	0068                	addi	a0,sp,12
	...
     91a:	0000                	unimp
     91c:	ff00                	sd	s0,56(a4)
     91e:	ffff                	0xffff
     920:	ffff                	0xffff
     922:	ffff                	0xffff
     924:	10ff                	0x10ff
     926:	2000                	fld	fs0,0(s0)
     928:	0080                	addi	s0,sp,64
     92a:	0000                	unimp
     92c:	5800                	lw	s0,48(s0)
     92e:	0004                	0x4
     930:	0000                	unimp
     932:	0000                	unimp
     934:	6e00                	ld	s0,24(a2)
     936:	0004                	0x4
     938:	0000                	unimp
     93a:	0000                	unimp
     93c:	0100                	addi	s0,sp,128
     93e:	5800                	lw	s0,48(s0)
	...
     950:	ffff                	0xffff
     952:	ffff                	0xffff
     954:	ffff                	0xffff
     956:	ffff                	0xffff
     958:	0010                	0x10
     95a:	8020                	0x8020
     95c:	0000                	unimp
     95e:	0000                	unimp
     960:	046e                	slli	s0,s0,0x1b
     962:	0000                	unimp
     964:	0000                	unimp
     966:	0000                	unimp
     968:	0480                	addi	s0,sp,576
     96a:	0000                	unimp
     96c:	0000                	unimp
     96e:	0000                	unimp
     970:	0002                	c.slli64	zero
     972:	9f30                	0x9f30
     974:	0480                	addi	s0,sp,576
     976:	0000                	unimp
     978:	0000                	unimp
     97a:	0000                	unimp
     97c:	04d2                	slli	s1,s1,0x14
     97e:	0000                	unimp
     980:	0000                	unimp
     982:	0000                	unimp
     984:	0001                	nop
     986:	1059                	c.nop	-10
     988:	0005                	c.nop	1
     98a:	0000                	unimp
     98c:	0000                	unimp
     98e:	2e00                	fld	fs0,24(a2)
     990:	0005                	c.nop	1
     992:	0000                	unimp
     994:	0000                	unimp
     996:	0100                	addi	s0,sp,128
     998:	5900                	lw	s0,48(a0)
	...
     9aa:	ffff                	0xffff
     9ac:	ffff                	0xffff
     9ae:	ffff                	0xffff
     9b0:	ffff                	0xffff
     9b2:	0010                	0x10
     9b4:	8020                	0x8020
     9b6:	0000                	unimp
     9b8:	0000                	unimp
     9ba:	0480                	addi	s0,sp,576
     9bc:	0000                	unimp
     9be:	0000                	unimp
     9c0:	0000                	unimp
     9c2:	04ae                	slli	s1,s1,0xb
     9c4:	0000                	unimp
     9c6:	0000                	unimp
     9c8:	0000                	unimp
     9ca:	0001                	nop
     9cc:	cc58                	sw	a4,28(s0)
     9ce:	0004                	0x4
     9d0:	0000                	unimp
     9d2:	0000                	unimp
     9d4:	d200                	sw	s0,32(a2)
     9d6:	0004                	0x4
     9d8:	0000                	unimp
     9da:	0000                	unimp
     9dc:	0100                	addi	s0,sp,128
     9de:	5800                	lw	s0,48(s0)
	...
     9f0:	ffff                	0xffff
     9f2:	ffff                	0xffff
     9f4:	ffff                	0xffff
     9f6:	ffff                	0xffff
     9f8:	0010                	0x10
     9fa:	8020                	0x8020
     9fc:	0000                	unimp
     9fe:	0000                	unimp
     a00:	0480                	addi	s0,sp,576
     a02:	0000                	unimp
     a04:	0000                	unimp
     a06:	0000                	unimp
     a08:	04a2                	slli	s1,s1,0x8
     a0a:	0000                	unimp
     a0c:	0000                	unimp
     a0e:	0000                	unimp
     a10:	0006                	c.slli	zero,0x1
     a12:	0085                	addi	ra,ra,1
     a14:	0079                	c.nop	30
     a16:	9f1c                	0x9f1c
     a18:	04cc                	addi	a1,sp,580
     a1a:	0000                	unimp
     a1c:	0000                	unimp
     a1e:	0000                	unimp
     a20:	04d2                	slli	s1,s1,0x14
     a22:	0000                	unimp
     a24:	0000                	unimp
     a26:	0000                	unimp
     a28:	0006                	c.slli	zero,0x1
     a2a:	0085                	addi	ra,ra,1
     a2c:	0079                	c.nop	30
     a2e:	9f1c                	0x9f1c
	...
     a40:	ffff                	0xffff
     a42:	ffff                	0xffff
     a44:	ffff                	0xffff
     a46:	ffff                	0xffff
     a48:	0010                	0x10
     a4a:	8020                	0x8020
     a4c:	0000                	unimp
     a4e:	0000                	unimp
     a50:	0480                	addi	s0,sp,576
     a52:	0000                	unimp
     a54:	0000                	unimp
     a56:	0000                	unimp
     a58:	048e                	slli	s1,s1,0x3
     a5a:	0000                	unimp
     a5c:	0000                	unimp
     a5e:	0000                	unimp
     a60:	0001                	nop
     a62:	005c                	addi	a5,sp,4
	...
     a70:	0000                	unimp
     a72:	ff00                	sd	s0,56(a4)
     a74:	ffff                	0xffff
     a76:	ffff                	0xffff
     a78:	ffff                	0xffff
     a7a:	10ff                	0x10ff
     a7c:	2000                	fld	fs0,0(s0)
     a7e:	0080                	addi	s0,sp,64
     a80:	0000                	unimp
     a82:	ae00                	fsd	fs0,24(a2)
     a84:	0004                	0x4
     a86:	0000                	unimp
     a88:	0000                	unimp
     a8a:	d200                	sw	s0,32(a2)
     a8c:	0004                	0x4
     a8e:	0000                	unimp
     a90:	0000                	unimp
     a92:	0200                	addi	s0,sp,256
     a94:	3100                	fld	fs0,32(a0)
     a96:	109f 0005 0000      	0x5109f
     a9c:	0000                	unimp
     a9e:	2e00                	fld	fs0,24(a2)
     aa0:	0005                	c.nop	1
     aa2:	0000                	unimp
     aa4:	0000                	unimp
     aa6:	0200                	addi	s0,sp,256
     aa8:	3100                	fld	fs0,32(a0)
     aaa:	009f 0000 0000      	0x9f
	...
     ab8:	0000                	unimp
     aba:	ff00                	sd	s0,56(a4)
     abc:	ffff                	0xffff
     abe:	ffff                	0xffff
     ac0:	ffff                	0xffff
     ac2:	10ff                	0x10ff
     ac4:	2000                	fld	fs0,0(s0)
     ac6:	0080                	addi	s0,sp,64
     ac8:	0000                	unimp
     aca:	b200                	fsd	fs0,32(a2)
     acc:	0004                	0x4
     ace:	0000                	unimp
     ad0:	0000                	unimp
     ad2:	d200                	sw	s0,32(a2)
     ad4:	0004                	0x4
     ad6:	0000                	unimp
     ad8:	0000                	unimp
     ada:	0100                	addi	s0,sp,128
     adc:	5800                	lw	s0,48(s0)
     ade:	0510                	addi	a2,sp,640
     ae0:	0000                	unimp
     ae2:	0000                	unimp
     ae4:	0000                	unimp
     ae6:	052e                	slli	a0,a0,0xb
     ae8:	0000                	unimp
     aea:	0000                	unimp
     aec:	0000                	unimp
     aee:	0001                	nop
     af0:	0058                	addi	a4,sp,4
	...
     afe:	0000                	unimp
     b00:	ff00                	sd	s0,56(a4)
     b02:	ffff                	0xffff
     b04:	ffff                	0xffff
     b06:	ffff                	0xffff
     b08:	10ff                	0x10ff
     b0a:	2000                	fld	fs0,0(s0)
     b0c:	0080                	addi	s0,sp,64
     b0e:	0000                	unimp
     b10:	6a00                	ld	s0,16(a2)
     b12:	0005                	c.nop	1
     b14:	0000                	unimp
     b16:	0000                	unimp
     b18:	7000                	ld	s0,32(s0)
     b1a:	0005                	c.nop	1
     b1c:	0000                	unimp
     b1e:	0000                	unimp
     b20:	0100                	addi	s0,sp,128
     b22:	5f00                	lw	s0,56(a4)
     b24:	059a                	slli	a1,a1,0x6
     b26:	0000                	unimp
     b28:	0000                	unimp
     b2a:	0000                	unimp
     b2c:	05a0                	addi	s0,sp,712
     b2e:	0000                	unimp
     b30:	0000                	unimp
     b32:	0000                	unimp
     b34:	0001                	nop
     b36:	c45f 0005 0000      	0x5c45f
     b3c:	0000                	unimp
     b3e:	ca00                	sw	s0,16(a2)
     b40:	0005                	c.nop	1
     b42:	0000                	unimp
     b44:	0000                	unimp
     b46:	0100                	addi	s0,sp,128
     b48:	5f00                	lw	s0,56(a4)
     b4a:	05f4                	addi	a3,sp,716
     b4c:	0000                	unimp
     b4e:	0000                	unimp
     b50:	0000                	unimp
     b52:	05fa                	slli	a1,a1,0x1e
     b54:	0000                	unimp
     b56:	0000                	unimp
     b58:	0000                	unimp
     b5a:	0001                	nop
     b5c:	1e5f 0006 0000      	0x61e5f
     b62:	0000                	unimp
     b64:	2400                	fld	fs0,8(s0)
     b66:	0006                	c.slli	zero,0x1
     b68:	0000                	unimp
     b6a:	0000                	unimp
     b6c:	0100                	addi	s0,sp,128
     b6e:	5f00                	lw	s0,56(a4)
     b70:	064e                	slli	a2,a2,0x13
     b72:	0000                	unimp
     b74:	0000                	unimp
     b76:	0000                	unimp
     b78:	0654                	addi	a3,sp,772
     b7a:	0000                	unimp
     b7c:	0000                	unimp
     b7e:	0000                	unimp
     b80:	0001                	nop
     b82:	785f 0006 0000      	0x6785f
     b88:	0000                	unimp
     b8a:	7e00                	ld	s0,56(a2)
     b8c:	0006                	c.slli	zero,0x1
     b8e:	0000                	unimp
     b90:	0000                	unimp
     b92:	0100                	addi	s0,sp,128
     b94:	5f00                	lw	s0,56(a4)
     b96:	06a4                	addi	s1,sp,840
     b98:	0000                	unimp
     b9a:	0000                	unimp
     b9c:	0000                	unimp
     b9e:	06aa                	slli	a3,a3,0xa
     ba0:	0000                	unimp
     ba2:	0000                	unimp
     ba4:	0000                	unimp
     ba6:	0001                	nop
     ba8:	005f 0000 0000      	0x5f
	...
     bb6:	0000                	unimp
     bb8:	ff00                	sd	s0,56(a4)
     bba:	ffff                	0xffff
     bbc:	ffff                	0xffff
     bbe:	ffff                	0xffff
     bc0:	10ff                	0x10ff
     bc2:	2000                	fld	fs0,0(s0)
     bc4:	0080                	addi	s0,sp,64
     bc6:	0000                	unimp
     bc8:	6400                	ld	s0,8(s0)
     bca:	0005                	c.nop	1
     bcc:	0000                	unimp
     bce:	0000                	unimp
     bd0:	7000                	ld	s0,32(s0)
     bd2:	0005                	c.nop	1
     bd4:	0000                	unimp
     bd6:	0000                	unimp
     bd8:	0300                	addi	s0,sp,384
     bda:	1100                	addi	s0,sp,160
     bdc:	9f00                	0x9f00
     bde:	0570                	addi	a2,sp,652
     be0:	0000                	unimp
     be2:	0000                	unimp
     be4:	0000                	unimp
     be6:	05a0                	addi	s0,sp,712
     be8:	0000                	unimp
     bea:	0000                	unimp
     bec:	0000                	unimp
     bee:	01110003          	lb	zero,17(sp)
     bf2:	a09f 0005 0000      	0x5a09f
     bf8:	0000                	unimp
     bfa:	ca00                	sw	s0,16(a2)
     bfc:	0005                	c.nop	1
     bfe:	0000                	unimp
     c00:	0000                	unimp
     c02:	0300                	addi	s0,sp,384
     c04:	1100                	addi	s0,sp,160
     c06:	9f02                	jalr	t5
     c08:	05ca                	slli	a1,a1,0x12
     c0a:	0000                	unimp
     c0c:	0000                	unimp
     c0e:	0000                	unimp
     c10:	05fa                	slli	a1,a1,0x1e
     c12:	0000                	unimp
     c14:	0000                	unimp
     c16:	0000                	unimp
     c18:	03110003          	lb	zero,49(sp)
     c1c:	fa9f 0005 0000      	0x5fa9f
     c22:	0000                	unimp
     c24:	2400                	fld	fs0,8(s0)
     c26:	0006                	c.slli	zero,0x1
     c28:	0000                	unimp
     c2a:	0000                	unimp
     c2c:	0300                	addi	s0,sp,384
     c2e:	1100                	addi	s0,sp,160
     c30:	9f04                	0x9f04
     c32:	0624                	addi	s1,sp,776
     c34:	0000                	unimp
     c36:	0000                	unimp
     c38:	0000                	unimp
     c3a:	0654                	addi	a3,sp,772
     c3c:	0000                	unimp
     c3e:	0000                	unimp
     c40:	0000                	unimp
     c42:	05110003          	lb	zero,81(sp)
     c46:	549f 0006 0000      	0x6549f
     c4c:	0000                	unimp
     c4e:	7e00                	ld	s0,56(a2)
     c50:	0006                	c.slli	zero,0x1
     c52:	0000                	unimp
     c54:	0000                	unimp
     c56:	0300                	addi	s0,sp,384
     c58:	1100                	addi	s0,sp,160
     c5a:	9f06                	add	t5,t5,ra
     c5c:	067e                	slli	a2,a2,0x1f
     c5e:	0000                	unimp
     c60:	0000                	unimp
     c62:	0000                	unimp
     c64:	06aa                	slli	a3,a3,0xa
     c66:	0000                	unimp
     c68:	0000                	unimp
     c6a:	0000                	unimp
     c6c:	07110003          	lb	zero,113(sp)
     c70:	aa9f 0006 0000      	0x6aa9f
     c76:	0000                	unimp
     c78:	ac00                	fsd	fs0,24(s0)
     c7a:	0006                	c.slli	zero,0x1
     c7c:	0000                	unimp
     c7e:	0000                	unimp
     c80:	0300                	addi	s0,sp,384
     c82:	1100                	addi	s0,sp,160
     c84:	9f08                	0x9f08
	...
     c96:	ffff                	0xffff
     c98:	ffff                	0xffff
     c9a:	ffff                	0xffff
     c9c:	ffff                	0xffff
     c9e:	0010                	0x10
     ca0:	8020                	0x8020
     ca2:	0000                	unimp
     ca4:	0000                	unimp
     ca6:	0564                	addi	s1,sp,652
     ca8:	0000                	unimp
     caa:	0000                	unimp
     cac:	0000                	unimp
     cae:	06ac                	addi	a1,sp,840
     cb0:	0000                	unimp
     cb2:	0000                	unimp
     cb4:	0000                	unimp
     cb6:	0001                	nop
     cb8:	ac60                	fsd	fs0,216(s0)
     cba:	0006                	c.slli	zero,0x1
     cbc:	0000                	unimp
     cbe:	0000                	unimp
     cc0:	e800                	sd	s0,16(s0)
     cc2:	0006                	c.slli	zero,0x1
     cc4:	0000                	unimp
     cc6:	0000                	unimp
     cc8:	0100                	addi	s0,sp,128
     cca:	5f00                	lw	s0,56(a4)
	...
     cdc:	ffff                	0xffff
     cde:	ffff                	0xffff
     ce0:	ffff                	0xffff
     ce2:	ffff                	0xffff
     ce4:	0010                	0x10
     ce6:	8020                	0x8020
     ce8:	0000                	unimp
     cea:	0000                	unimp
     cec:	06d4                	addi	a3,sp,836
     cee:	0000                	unimp
     cf0:	0000                	unimp
     cf2:	0000                	unimp
     cf4:	06d6                	slli	a3,a3,0x15
     cf6:	0000                	unimp
     cf8:	0000                	unimp
     cfa:	0000                	unimp
     cfc:	0001                	nop
     cfe:	005a                	c.slli	zero,0x16
	...
     d0c:	0000                	unimp
     d0e:	ff00                	sd	s0,56(a4)
     d10:	ffff                	0xffff
     d12:	ffff                	0xffff
     d14:	ffff                	0xffff
     d16:	10ff                	0x10ff
     d18:	2000                	fld	fs0,0(s0)
     d1a:	0080                	addi	s0,sp,64
     d1c:	0000                	unimp
     d1e:	f000                	sd	s0,32(s0)
     d20:	0006                	c.slli	zero,0x1
     d22:	0000                	unimp
     d24:	0000                	unimp
     d26:	f200                	sd	s0,32(a2)
     d28:	0006                	c.slli	zero,0x1
     d2a:	0000                	unimp
     d2c:	0000                	unimp
     d2e:	0c00                	addi	s0,sp,528
     d30:	7a00                	ld	s0,48(a2)
     d32:	1100                	addi	s0,sp,160
     d34:	8780                	0x8780
     d36:	111c0ea7          	0x111c0ea7
     d3a:	1b7f                	0x1b7f
     d3c:	f49f 0006 0000      	0x6f49f
     d42:	0000                	unimp
     d44:	f600                	sd	s0,40(a2)
     d46:	0006                	c.slli	zero,0x1
     d48:	0000                	unimp
     d4a:	0000                	unimp
     d4c:	0f00                	addi	s0,sp,912
     d4e:	7a00                	ld	s0,48(a2)
     d50:	1100                	addi	s0,sp,160
     d52:	8780                	0x8780
     d54:	111c0ea7          	0x111c0ea7
     d58:	1b7f                	0x1b7f
     d5a:	0111                	addi	sp,sp,4
     d5c:	9f22                	add	t5,t5,s0
	...
     d6e:	ffff                	0xffff
     d70:	ffff                	0xffff
     d72:	ffff                	0xffff
     d74:	ffff                	0xffff
     d76:	0010                	0x10
     d78:	8020                	0x8020
     d7a:	0000                	unimp
     d7c:	0000                	unimp
     d7e:	0716                	slli	a4,a4,0x5
     d80:	0000                	unimp
     d82:	0000                	unimp
     d84:	0000                	unimp
     d86:	072c                	addi	a1,sp,904
     d88:	0000                	unimp
     d8a:	0000                	unimp
     d8c:	0000                	unimp
     d8e:	0004                	0x4
     d90:	c111                	beqz	a0,d94 <$d.10+0x40d>
     d92:	9f00                	0x9f00
	...
     da4:	ffff                	0xffff
     da6:	ffff                	0xffff
     da8:	ffff                	0xffff
     daa:	ffff                	0xffff
     dac:	0010                	0x10
     dae:	8020                	0x8020
     db0:	0000                	unimp
     db2:	0000                	unimp
     db4:	0716                	slli	a4,a4,0x5
     db6:	0000                	unimp
     db8:	0000                	unimp
     dba:	0000                	unimp
     dbc:	072c                	addi	a1,sp,904
     dbe:	0000                	unimp
     dc0:	0000                	unimp
     dc2:	0000                	unimp
     dc4:	00110003          	lb	zero,1(sp)
     dc8:	009f 0000 0000      	0x9f
	...
     dd6:	0000                	unimp
     dd8:	ff00                	sd	s0,56(a4)
     dda:	ffff                	0xffff
     ddc:	ffff                	0xffff
     dde:	ffff                	0xffff
     de0:	10ff                	0x10ff
     de2:	2000                	fld	fs0,0(s0)
     de4:	0080                	addi	s0,sp,64
     de6:	0000                	unimp
     de8:	3600                	fld	fs0,40(a2)
     dea:	00000007          	vlbu.v	v0,(zero),v0.t
     dee:	0000                	unimp
     df0:	3800                	fld	fs0,48(s0)
     df2:	00000007          	vlbu.v	v0,(zero),v0.t
     df6:	0000                	unimp
     df8:	0c00                	addi	s0,sp,528
     dfa:	7a00                	ld	s0,48(a2)
     dfc:	1100                	addi	s0,sp,160
     dfe:	8780                	0x8780
     e00:	111c0ea7          	0x111c0ea7
     e04:	1b7f                	0x1b7f
     e06:	3a9f 0007 0000      	0x73a9f
     e0c:	0000                	unimp
     e0e:	3e00                	fld	fs0,56(a2)
     e10:	00000007          	vlbu.v	v0,(zero),v0.t
     e14:	0000                	unimp
     e16:	0f00                	addi	s0,sp,912
     e18:	7a00                	ld	s0,48(a2)
     e1a:	1100                	addi	s0,sp,160
     e1c:	8780                	0x8780
     e1e:	111c0ea7          	0x111c0ea7
     e22:	1b7f                	0x1b7f
     e24:	0111                	addi	sp,sp,4
     e26:	9f22                	add	t5,t5,s0
	...
     e38:	ffff                	0xffff
     e3a:	ffff                	0xffff
     e3c:	ffff                	0xffff
     e3e:	ffff                	0xffff
     e40:	0010                	0x10
     e42:	8020                	0x8020
     e44:	0000                	unimp
     e46:	0000                	unimp
     e48:	075c                	addi	a5,sp,900
     e4a:	0000                	unimp
     e4c:	0000                	unimp
     e4e:	0000                	unimp
     e50:	0772                	slli	a4,a4,0x1c
     e52:	0000                	unimp
     e54:	0000                	unimp
     e56:	0000                	unimp
     e58:	0004                	0x4
     e5a:	c211                	beqz	a2,e5e <$d.10+0x4d7>
     e5c:	9f00                	0x9f00
	...
     e6e:	ffff                	0xffff
     e70:	ffff                	0xffff
     e72:	ffff                	0xffff
     e74:	ffff                	0xffff
     e76:	0010                	0x10
     e78:	8020                	0x8020
     e7a:	0000                	unimp
     e7c:	0000                	unimp
     e7e:	075c                	addi	a5,sp,900
     e80:	0000                	unimp
     e82:	0000                	unimp
     e84:	0000                	unimp
     e86:	0772                	slli	a4,a4,0x1c
     e88:	0000                	unimp
     e8a:	0000                	unimp
     e8c:	0000                	unimp
     e8e:	00110003          	lb	zero,1(sp)
     e92:	009f 0000 0000      	0x9f
	...
     ea0:	0000                	unimp
     ea2:	ff00                	sd	s0,56(a4)
     ea4:	ffff                	0xffff
     ea6:	ffff                	0xffff
     ea8:	ffff                	0xffff
     eaa:	10ff                	0x10ff
     eac:	2000                	fld	fs0,0(s0)
     eae:	0080                	addi	s0,sp,64
     eb0:	0000                	unimp
     eb2:	7c00                	ld	s0,56(s0)
     eb4:	00000007          	vlbu.v	v0,(zero),v0.t
     eb8:	0000                	unimp
     eba:	7e00                	ld	s0,56(a2)
     ebc:	00000007          	vlbu.v	v0,(zero),v0.t
     ec0:	0000                	unimp
     ec2:	0c00                	addi	s0,sp,528
     ec4:	7a00                	ld	s0,48(a2)
     ec6:	1100                	addi	s0,sp,160
     ec8:	8780                	0x8780
     eca:	111c0ea7          	0x111c0ea7
     ece:	1b7f                	0x1b7f
     ed0:	809f 0007 0000      	0x7809f
     ed6:	0000                	unimp
     ed8:	8400                	0x8400
     eda:	00000007          	vlbu.v	v0,(zero),v0.t
     ede:	0000                	unimp
     ee0:	0f00                	addi	s0,sp,912
     ee2:	7a00                	ld	s0,48(a2)
     ee4:	1100                	addi	s0,sp,160
     ee6:	8780                	0x8780
     ee8:	111c0ea7          	0x111c0ea7
     eec:	1b7f                	0x1b7f
     eee:	0111                	addi	sp,sp,4
     ef0:	9f22                	add	t5,t5,s0
	...
     f02:	ffff                	0xffff
     f04:	ffff                	0xffff
     f06:	ffff                	0xffff
     f08:	ffff                	0xffff
     f0a:	0010                	0x10
     f0c:	8020                	0x8020
     f0e:	0000                	unimp
     f10:	0000                	unimp
     f12:	0784                	addi	s1,sp,960
     f14:	0000                	unimp
     f16:	0000                	unimp
     f18:	0000                	unimp
     f1a:	07cc                	addi	a1,sp,964
     f1c:	0000                	unimp
     f1e:	0000                	unimp
     f20:	0000                	unimp
     f22:	0001                	nop
     f24:	e05a                	sd	s6,0(sp)
     f26:	00000007          	vlbu.v	v0,(zero),v0.t
     f2a:	0000                	unimp
     f2c:	e800                	sd	s0,16(s0)
     f2e:	00000007          	vlbu.v	v0,(zero),v0.t
     f32:	0000                	unimp
     f34:	0100                	addi	s0,sp,128
     f36:	5a00                	lw	s0,48(a2)
	...
     f48:	ffff                	0xffff
     f4a:	ffff                	0xffff
     f4c:	ffff                	0xffff
     f4e:	ffff                	0xffff
     f50:	0010                	0x10
     f52:	8020                	0x8020
     f54:	0000                	unimp
     f56:	0000                	unimp
     f58:	07cc                	addi	a1,sp,964
     f5a:	0000                	unimp
     f5c:	0000                	unimp
     f5e:	0000                	unimp
     f60:	07de                	slli	a5,a5,0x17
     f62:	0000                	unimp
     f64:	0000                	unimp
     f66:	0000                	unimp
     f68:	00110003          	lb	zero,1(sp)
     f6c:	009f 0000 0000      	0x9f
	...
     f7a:	0000                	unimp
     f7c:	ff00                	sd	s0,56(a4)
     f7e:	ffff                	0xffff
     f80:	ffff                	0xffff
     f82:	ffff                	0xffff
     f84:	10ff                	0x10ff
     f86:	2000                	fld	fs0,0(s0)
     f88:	0080                	addi	s0,sp,64
     f8a:	0000                	unimp
     f8c:	0600                	addi	s0,sp,768
     f8e:	0008                	0x8
     f90:	0000                	unimp
     f92:	0000                	unimp
     f94:	6400                	ld	s0,8(s0)
     f96:	0008                	0x8
     f98:	0000                	unimp
     f9a:	0000                	unimp
     f9c:	0100                	addi	s0,sp,128
     f9e:	5a00                	lw	s0,48(a2)
     fa0:	0882                	c.slli64	a7
     fa2:	0000                	unimp
     fa4:	0000                	unimp
     fa6:	0000                	unimp
     fa8:	0886                	slli	a7,a7,0x1
     faa:	0000                	unimp
     fac:	0000                	unimp
     fae:	0000                	unimp
     fb0:	0001                	nop
     fb2:	a25a                	fsd	fs6,256(sp)
     fb4:	0008                	0x8
     fb6:	0000                	unimp
     fb8:	0000                	unimp
     fba:	a600                	fsd	fs0,8(a2)
     fbc:	0008                	0x8
     fbe:	0000                	unimp
     fc0:	0000                	unimp
     fc2:	0100                	addi	s0,sp,128
     fc4:	5a00                	lw	s0,48(a2)
	...
     fd6:	ffff                	0xffff
     fd8:	ffff                	0xffff
     fda:	ffff                	0xffff
     fdc:	ffff                	0xffff
     fde:	0010                	0x10
     fe0:	8020                	0x8020
     fe2:	0000                	unimp
     fe4:	0000                	unimp
     fe6:	080e                	slli	a6,a6,0x3
     fe8:	0000                	unimp
     fea:	0000                	unimp
     fec:	0000                	unimp
     fee:	0828                	addi	a0,sp,24
     ff0:	0000                	unimp
     ff2:	0000                	unimp
     ff4:	0000                	unimp
     ff6:	0001                	nop
     ff8:	825d                	srli	a2,a2,0x17
     ffa:	0008                	0x8
     ffc:	0000                	unimp
     ffe:	0000                	unimp
    1000:	a000                	fsd	fs0,0(s0)
    1002:	0008                	0x8
    1004:	0000                	unimp
    1006:	0000                	unimp
    1008:	0100                	addi	s0,sp,128
    100a:	5d00                	lw	s0,56(a0)
	...
    101c:	ffff                	0xffff
    101e:	ffff                	0xffff
    1020:	ffff                	0xffff
    1022:	ffff                	0xffff
    1024:	0010                	0x10
    1026:	8020                	0x8020
    1028:	0000                	unimp
    102a:	0000                	unimp
    102c:	0812                	slli	a6,a6,0x4
    102e:	0000                	unimp
    1030:	0000                	unimp
    1032:	0000                	unimp
    1034:	082c                	addi	a1,sp,24
    1036:	0000                	unimp
    1038:	0000                	unimp
    103a:	0000                	unimp
    103c:	0001                	nop
    103e:	825e                	mv	tp,s7
    1040:	0008                	0x8
    1042:	0000                	unimp
    1044:	0000                	unimp
    1046:	a000                	fsd	fs0,0(s0)
    1048:	0008                	0x8
    104a:	0000                	unimp
    104c:	0000                	unimp
    104e:	0100                	addi	s0,sp,128
    1050:	5e00                	lw	s0,56(a2)
	...
    1062:	ffff                	0xffff
    1064:	ffff                	0xffff
    1066:	ffff                	0xffff
    1068:	ffff                	0xffff
    106a:	0010                	0x10
    106c:	8020                	0x8020
    106e:	0000                	unimp
    1070:	0000                	unimp
    1072:	0812                	slli	a6,a6,0x4
    1074:	0000                	unimp
    1076:	0000                	unimp
    1078:	0000                	unimp
    107a:	081c                	addi	a5,sp,16
    107c:	0000                	unimp
    107e:	0000                	unimp
    1080:	0000                	unimp
    1082:	0001                	nop
    1084:	005e                	c.slli	zero,0x17
	...
    1092:	0000                	unimp
    1094:	ff00                	sd	s0,56(a4)
    1096:	ffff                	0xffff
    1098:	ffff                	0xffff
    109a:	ffff                	0xffff
    109c:	10ff                	0x10ff
    109e:	2000                	fld	fs0,0(s0)
    10a0:	0080                	addi	s0,sp,64
    10a2:	0000                	unimp
    10a4:	1800                	addi	s0,sp,48
    10a6:	0008                	0x8
    10a8:	0000                	unimp
    10aa:	0000                	unimp
    10ac:	a000                	fsd	fs0,0(s0)
    10ae:	0008                	0x8
    10b0:	0000                	unimp
    10b2:	0000                	unimp
    10b4:	0100                	addi	s0,sp,128
    10b6:	5500                	lw	s0,40(a0)
    10b8:	08a2                	slli	a7,a7,0x8
    10ba:	0000                	unimp
    10bc:	0000                	unimp
    10be:	0000                	unimp
    10c0:	08be                	slli	a7,a7,0xf
    10c2:	0000                	unimp
    10c4:	0000                	unimp
    10c6:	0000                	unimp
    10c8:	0001                	nop
    10ca:	0055                	c.nop	21
	...
    10d8:	0000                	unimp
    10da:	ff00                	sd	s0,56(a4)
    10dc:	ffff                	0xffff
    10de:	ffff                	0xffff
    10e0:	ffff                	0xffff
    10e2:	10ff                	0x10ff
    10e4:	2000                	fld	fs0,0(s0)
    10e6:	0080                	addi	s0,sp,64
    10e8:	0000                	unimp
    10ea:	1c00                	addi	s0,sp,560
    10ec:	0008                	0x8
    10ee:	0000                	unimp
    10f0:	0000                	unimp
    10f2:	6400                	ld	s0,8(s0)
    10f4:	0008                	0x8
    10f6:	0000                	unimp
    10f8:	0000                	unimp
    10fa:	0100                	addi	s0,sp,128
    10fc:	5a00                	lw	s0,48(a2)
    10fe:	08a2                	slli	a7,a7,0x8
    1100:	0000                	unimp
    1102:	0000                	unimp
    1104:	0000                	unimp
    1106:	08a6                	slli	a7,a7,0x9
    1108:	0000                	unimp
    110a:	0000                	unimp
    110c:	0000                	unimp
    110e:	0001                	nop
    1110:	005a                	c.slli	zero,0x16
	...
    111e:	0000                	unimp
    1120:	ff00                	sd	s0,56(a4)
    1122:	ffff                	0xffff
    1124:	ffff                	0xffff
    1126:	ffff                	0xffff
    1128:	10ff                	0x10ff
    112a:	2000                	fld	fs0,0(s0)
    112c:	0080                	addi	s0,sp,64
    112e:	0000                	unimp
    1130:	6400                	ld	s0,8(s0)
    1132:	0008                	0x8
    1134:	0000                	unimp
    1136:	0000                	unimp
    1138:	7600                	ld	s0,40(a2)
    113a:	0008                	0x8
    113c:	0000                	unimp
    113e:	0000                	unimp
    1140:	0300                	addi	s0,sp,384
    1142:	1100                	addi	s0,sp,160
    1144:	9f00                	0x9f00
	...
    1156:	ffff                	0xffff
    1158:	ffff                	0xffff
    115a:	ffff                	0xffff
    115c:	ffff                	0xffff
    115e:	0010                	0x10
    1160:	8020                	0x8020
    1162:	0000                	unimp
    1164:	0000                	unimp
    1166:	08e8                	addi	a0,sp,92
    1168:	0000                	unimp
    116a:	0000                	unimp
    116c:	0000                	unimp
    116e:	08ee                	slli	a7,a7,0x1b
    1170:	0000                	unimp
    1172:	0000                	unimp
    1174:	0000                	unimp
    1176:	0001                	nop
    1178:	005a                	c.slli	zero,0x16
	...

0000000000001189 <$d.2>:
	...
    1191:	0006                	c.slli	zero,0x1
    1193:	0000                	unimp
    1195:	0000                	unimp
    1197:	0000                	unimp
    1199:	0001                	nop
    119b:	065a                	slli	a2,a2,0x16
    119d:	0000                	unimp
    119f:	0000                	unimp
    11a1:	0000                	unimp
    11a3:	0a00                	addi	s0,sp,272
    11a5:	0000                	unimp
    11a7:	0000                	unimp
    11a9:	0000                	unimp
    11ab:	0100                	addi	s0,sp,128
    11ad:	5d00                	lw	s0,56(a0)
    11af:	000a                	c.slli	zero,0x2
    11b1:	0000                	unimp
    11b3:	0000                	unimp
    11b5:	0000                	unimp
    11b7:	0010                	0x10
    11b9:	0000                	unimp
    11bb:	0000                	unimp
    11bd:	0000                	unimp
    11bf:	0001                	nop
    11c1:	105e                	c.slli	zero,0x37
    11c3:	0000                	unimp
    11c5:	0000                	unimp
    11c7:	0000                	unimp
    11c9:	1400                	addi	s0,sp,544
    11cb:	0000                	unimp
    11cd:	0000                	unimp
    11cf:	0000                	unimp
    11d1:	0100                	addi	s0,sp,128
    11d3:	5d00                	lw	s0,56(a0)
	...
    11ed:	0004                	0x4
    11ef:	0000                	unimp
    11f1:	0000                	unimp
    11f3:	0000                	unimp
    11f5:	7f7c0003          	lb	zero,2039(s8) # 187f7 <_binary_shell_bin_size+0x84d7>
    11f9:	009f 0000 0000      	0x9f
	...
    1207:	0000                	unimp
    1209:	1600                	addi	s0,sp,800
    120b:	0000                	unimp
    120d:	0000                	unimp
    120f:	0000                	unimp
    1211:	1c00                	addi	s0,sp,560
    1213:	0000                	unimp
    1215:	0000                	unimp
    1217:	0000                	unimp
    1219:	0100                	addi	s0,sp,128
    121b:	5b00                	lw	s0,48(a4)
	...
    122d:	0016                	c.slli	zero,0x5
    122f:	0000                	unimp
    1231:	0000                	unimp
    1233:	0000                	unimp
    1235:	001c                	0x1c
    1237:	0000                	unimp
    1239:	0000                	unimp
    123b:	0000                	unimp
    123d:	0001                	nop
    123f:	1c5a                	slli	s8,s8,0x36
    1241:	0000                	unimp
    1243:	0000                	unimp
    1245:	0000                	unimp
    1247:	2600                	fld	fs0,8(a2)
    1249:	0000                	unimp
    124b:	0000                	unimp
    124d:	0000                	unimp
    124f:	0100                	addi	s0,sp,128
    1251:	5d00                	lw	s0,56(a0)
    1253:	0026                	c.slli	zero,0x9
    1255:	0000                	unimp
    1257:	0000                	unimp
    1259:	0000                	unimp
    125b:	002c                	addi	a1,sp,8
    125d:	0000                	unimp
    125f:	0000                	unimp
    1261:	0000                	unimp
    1263:	0001                	nop
    1265:	2c5f 0000 0000      	0x2c5f
    126b:	0000                	unimp
    126d:	3000                	fld	fs0,32(s0)
    126f:	0000                	unimp
    1271:	0000                	unimp
    1273:	0000                	unimp
    1275:	0100                	addi	s0,sp,128
    1277:	5d00                	lw	s0,56(a0)
	...
    1289:	0016                	c.slli	zero,0x5
    128b:	0000                	unimp
    128d:	0000                	unimp
    128f:	0000                	unimp
    1291:	001a                	c.slli	zero,0x6
    1293:	0000                	unimp
    1295:	0000                	unimp
    1297:	0000                	unimp
    1299:	7f7c0003          	lb	zero,2039(s8)
    129d:	009f 0000 0000      	0x9f
	...
    12ab:	0000                	unimp
    12ad:	3200                	fld	fs0,32(a2)
    12af:	0000                	unimp
    12b1:	0000                	unimp
    12b3:	0000                	unimp
    12b5:	3c00                	fld	fs0,56(s0)
    12b7:	0000                	unimp
    12b9:	0000                	unimp
    12bb:	0000                	unimp
    12bd:	0100                	addi	s0,sp,128
    12bf:	5b00                	lw	s0,48(a4)
    12c1:	003e                	c.slli	zero,0xf
    12c3:	0000                	unimp
    12c5:	0000                	unimp
    12c7:	0000                	unimp
    12c9:	004c                	addi	a1,sp,4
    12cb:	0000                	unimp
    12cd:	0000                	unimp
    12cf:	0000                	unimp
    12d1:	0001                	nop
    12d3:	0000005b          	0x5b
	...
    12e3:	3200                	fld	fs0,32(a2)
    12e5:	0000                	unimp
    12e7:	0000                	unimp
    12e9:	0000                	unimp
    12eb:	3e00                	fld	fs0,56(a2)
    12ed:	0000                	unimp
    12ef:	0000                	unimp
    12f1:	0000                	unimp
    12f3:	0100                	addi	s0,sp,128
    12f5:	5a00                	lw	s0,48(a2)
    12f7:	003e                	c.slli	zero,0xf
    12f9:	0000                	unimp
    12fb:	0000                	unimp
    12fd:	0000                	unimp
    12ff:	004a                	c.slli	zero,0x12
    1301:	0000                	unimp
    1303:	0000                	unimp
    1305:	0000                	unimp
    1307:	0001                	nop
    1309:	4a5e                	lw	s4,212(sp)
    130b:	0000                	unimp
    130d:	0000                	unimp
    130f:	0000                	unimp
    1311:	5000                	lw	s0,32(s0)
    1313:	0000                	unimp
    1315:	0000                	unimp
    1317:	0000                	unimp
    1319:	0100                	addi	s0,sp,128
    131b:	5d00                	lw	s0,56(a0)
	...
    132d:	0056                	c.slli	zero,0x15
    132f:	0000                	unimp
    1331:	0000                	unimp
    1333:	0000                	unimp
    1335:	005e                	c.slli	zero,0x17
    1337:	0000                	unimp
    1339:	0000                	unimp
    133b:	0000                	unimp
    133d:	0001                	nop
    133f:	5e5a                	lw	t3,180(sp)
    1341:	0000                	unimp
    1343:	0000                	unimp
    1345:	0000                	unimp
    1347:	6a00                	ld	s0,16(a2)
    1349:	0000                	unimp
    134b:	0000                	unimp
    134d:	0000                	unimp
    134f:	0300                	addi	s0,sp,384
    1351:	7a00                	ld	s0,48(a2)
    1353:	9f7f                	0x9f7f
    1355:	006a                	c.slli	zero,0x1a
    1357:	0000                	unimp
    1359:	0000                	unimp
    135b:	0000                	unimp
    135d:	0072                	c.slli	zero,0x1c
    135f:	0000                	unimp
    1361:	0000                	unimp
    1363:	0000                	unimp
    1365:	0001                	nop
    1367:	7a5a                	ld	s4,432(sp)
    1369:	0000                	unimp
    136b:	0000                	unimp
    136d:	0000                	unimp
    136f:	7c00                	ld	s0,56(s0)
    1371:	0000                	unimp
    1373:	0000                	unimp
    1375:	0000                	unimp
    1377:	0100                	addi	s0,sp,128
    1379:	5a00                	lw	s0,48(a2)
	...
    138b:	0056                	c.slli	zero,0x15
    138d:	0000                	unimp
    138f:	0000                	unimp
    1391:	0000                	unimp
    1393:	0080                	addi	s0,sp,64
    1395:	0000                	unimp
    1397:	0000                	unimp
    1399:	0000                	unimp
    139b:	0001                	nop
    139d:	0000005b          	0x5b
	...
    13ad:	8400                	0x8400
    13af:	0000                	unimp
    13b1:	0000                	unimp
    13b3:	0000                	unimp
    13b5:	a200                	fsd	fs0,0(a2)
    13b7:	0000                	unimp
    13b9:	0000                	unimp
    13bb:	0000                	unimp
    13bd:	0100                	addi	s0,sp,128
    13bf:	5a00                	lw	s0,48(a2)
    13c1:	00a2                	slli	ra,ra,0x8
    13c3:	0000                	unimp
    13c5:	0000                	unimp
    13c7:	0000                	unimp
    13c9:	0266                	slli	tp,tp,0x19
    13cb:	0000                	unimp
    13cd:	0000                	unimp
    13cf:	0000                	unimp
    13d1:	0001                	nop
    13d3:	0058                	addi	a4,sp,4
	...
    13e1:	0000                	unimp
    13e3:	2000                	fld	fs0,0(s0)
    13e5:	0001                	nop
    13e7:	0000                	unimp
    13e9:	0000                	unimp
    13eb:	2800                	fld	fs0,16(s0)
    13ed:	0001                	nop
    13ef:	0000                	unimp
    13f1:	0000                	unimp
    13f3:	0100                	addi	s0,sp,128
    13f5:	6b00                	ld	s0,16(a4)
    13f7:	0214                	addi	a3,sp,256
    13f9:	0000                	unimp
    13fb:	0000                	unimp
    13fd:	0000                	unimp
    13ff:	0256                	slli	tp,tp,0x15
    1401:	0000                	unimp
    1403:	0000                	unimp
    1405:	0000                	unimp
    1407:	0001                	nop
    1409:	0000006b          	0x6b
	...
    1419:	2000                	fld	fs0,0(s0)
    141b:	0001                	nop
    141d:	0000                	unimp
    141f:	0000                	unimp
    1421:	2800                	fld	fs0,16(s0)
    1423:	0001                	nop
    1425:	0000                	unimp
    1427:	0000                	unimp
    1429:	0200                	addi	s0,sp,256
    142b:	3100                	fld	fs0,32(a0)
    142d:	149f 0002 0000      	0x2149f
    1433:	0000                	unimp
    1435:	1c00                	addi	s0,sp,560
    1437:	0002                	c.slli64	zero
    1439:	0000                	unimp
    143b:	0000                	unimp
    143d:	0200                	addi	s0,sp,256
    143f:	3100                	fld	fs0,32(a0)
    1441:	1c9f 0002 0000      	0x21c9f
    1447:	0000                	unimp
    1449:	2800                	fld	fs0,16(s0)
    144b:	0002                	c.slli64	zero
    144d:	0000                	unimp
    144f:	0000                	unimp
    1451:	0100                	addi	s0,sp,128
    1453:	5a00                	lw	s0,48(a2)
    1455:	022a                	slli	tp,tp,0xa
    1457:	0000                	unimp
    1459:	0000                	unimp
    145b:	0000                	unimp
    145d:	0250                	addi	a2,sp,260
    145f:	0000                	unimp
    1461:	0000                	unimp
    1463:	0000                	unimp
    1465:	0001                	nop
    1467:	0059                	c.nop	22
	...
    1475:	0000                	unimp
    1477:	3c00                	fld	fs0,56(s0)
    1479:	0001                	nop
    147b:	0000                	unimp
    147d:	0000                	unimp
    147f:	4e00                	lw	s0,24(a2)
    1481:	0001                	nop
    1483:	0000                	unimp
    1485:	0000                	unimp
    1487:	0300                	addi	s0,sp,384
    1489:	1100                	addi	s0,sp,160
    148b:	014e9f07          	0x14e9f07
    148f:	0000                	unimp
    1491:	0000                	unimp
    1493:	0000                	unimp
    1495:	0162                	slli	sp,sp,0x18
    1497:	0000                	unimp
    1499:	0000                	unimp
    149b:	0000                	unimp
    149d:	06110003          	lb	zero,97(sp)
    14a1:	629f 0001 0000      	0x1629f
    14a7:	0000                	unimp
    14a9:	7600                	ld	s0,40(a2)
    14ab:	0001                	nop
    14ad:	0000                	unimp
    14af:	0000                	unimp
    14b1:	0300                	addi	s0,sp,384
    14b3:	1100                	addi	s0,sp,160
    14b5:	9f05                	subw	a4,a4,s1
    14b7:	0176                	slli	sp,sp,0x1d
    14b9:	0000                	unimp
    14bb:	0000                	unimp
    14bd:	0000                	unimp
    14bf:	018a                	slli	gp,gp,0x2
    14c1:	0000                	unimp
    14c3:	0000                	unimp
    14c5:	0000                	unimp
    14c7:	04110003          	lb	zero,65(sp)
    14cb:	8a9f 0001 0000      	0x18a9f
    14d1:	0000                	unimp
    14d3:	9e00                	0x9e00
    14d5:	0001                	nop
    14d7:	0000                	unimp
    14d9:	0000                	unimp
    14db:	0300                	addi	s0,sp,384
    14dd:	1100                	addi	s0,sp,160
    14df:	019e9f03          	lh	t5,25(t4)
    14e3:	0000                	unimp
    14e5:	0000                	unimp
    14e7:	0000                	unimp
    14e9:	01b2                	slli	gp,gp,0xc
    14eb:	0000                	unimp
    14ed:	0000                	unimp
    14ef:	0000                	unimp
    14f1:	02110003          	lb	zero,33(sp)
    14f5:	b29f 0001 0000      	0x1b29f
    14fb:	0000                	unimp
    14fd:	c600                	sw	s0,8(a2)
    14ff:	0001                	nop
    1501:	0000                	unimp
    1503:	0000                	unimp
    1505:	0300                	addi	s0,sp,384
    1507:	1100                	addi	s0,sp,160
    1509:	9f01                	subw	a4,a4,s0
    150b:	01c6                	slli	gp,gp,0x11
    150d:	0000                	unimp
    150f:	0000                	unimp
    1511:	0000                	unimp
    1513:	01ce                	slli	gp,gp,0x13
    1515:	0000                	unimp
    1517:	0000                	unimp
    1519:	0000                	unimp
    151b:	00110003          	lb	zero,1(sp)
    151f:	ce9f 0001 0000      	0x1ce9f
    1525:	0000                	unimp
    1527:	da00                	sw	s0,48(a2)
    1529:	0001                	nop
    152b:	0000                	unimp
    152d:	0000                	unimp
    152f:	0300                	addi	s0,sp,384
    1531:	1100                	addi	s0,sp,160
    1533:	9f7f                	0x9f7f
	...
    1545:	013c                	addi	a5,sp,136
    1547:	0000                	unimp
    1549:	0000                	unimp
    154b:	0000                	unimp
    154d:	01c8                	addi	a0,sp,196
    154f:	0000                	unimp
    1551:	0000                	unimp
    1553:	0000                	unimp
    1555:	0001                	nop
    1557:	0059                	c.nop	22
	...
    1565:	0000                	unimp
    1567:	4000                	lw	s0,0(s0)
    1569:	0001                	nop
    156b:	0000                	unimp
    156d:	0000                	unimp
    156f:	4200                	lw	s0,0(a2)
    1571:	0001                	nop
    1573:	0000                	unimp
    1575:	0000                	unimp
    1577:	0100                	addi	s0,sp,128
    1579:	5a00                	lw	s0,48(a2)
    157b:	0154                	addi	a3,sp,132
    157d:	0000                	unimp
    157f:	0000                	unimp
    1581:	0000                	unimp
    1583:	0156                	slli	sp,sp,0x15
    1585:	0000                	unimp
    1587:	0000                	unimp
    1589:	0000                	unimp
    158b:	0001                	nop
    158d:	685a                	ld	a6,400(sp)
    158f:	0001                	nop
    1591:	0000                	unimp
    1593:	0000                	unimp
    1595:	6a00                	ld	s0,16(a2)
    1597:	0001                	nop
    1599:	0000                	unimp
    159b:	0000                	unimp
    159d:	0100                	addi	s0,sp,128
    159f:	5a00                	lw	s0,48(a2)
    15a1:	017c                	addi	a5,sp,140
    15a3:	0000                	unimp
    15a5:	0000                	unimp
    15a7:	0000                	unimp
    15a9:	017e                	slli	sp,sp,0x1f
    15ab:	0000                	unimp
    15ad:	0000                	unimp
    15af:	0000                	unimp
    15b1:	0001                	nop
    15b3:	905a                	c.add	zero,s6
    15b5:	0001                	nop
    15b7:	0000                	unimp
    15b9:	0000                	unimp
    15bb:	9200                	0x9200
    15bd:	0001                	nop
    15bf:	0000                	unimp
    15c1:	0000                	unimp
    15c3:	0100                	addi	s0,sp,128
    15c5:	5a00                	lw	s0,48(a2)
    15c7:	01a4                	addi	s1,sp,200
    15c9:	0000                	unimp
    15cb:	0000                	unimp
    15cd:	0000                	unimp
    15cf:	01a6                	slli	gp,gp,0x9
    15d1:	0000                	unimp
    15d3:	0000                	unimp
    15d5:	0000                	unimp
    15d7:	0001                	nop
    15d9:	b85a                	fsd	fs6,48(sp)
    15db:	0001                	nop
    15dd:	0000                	unimp
    15df:	0000                	unimp
    15e1:	ba00                	fsd	fs0,48(a2)
    15e3:	0001                	nop
    15e5:	0000                	unimp
    15e7:	0000                	unimp
    15e9:	0100                	addi	s0,sp,128
    15eb:	5a00                	lw	s0,48(a2)
	...
    15fd:	01e4                	addi	s1,sp,204
    15ff:	0000                	unimp
    1601:	0000                	unimp
    1603:	0000                	unimp
    1605:	01ee                	slli	gp,gp,0x1b
    1607:	0000                	unimp
    1609:	0000                	unimp
    160b:	0000                	unimp
    160d:	0001                	nop
    160f:	ee59                	bnez	a2,16ad <$d.2+0x524>
    1611:	0001                	nop
    1613:	0000                	unimp
    1615:	0000                	unimp
    1617:	fa00                	sd	s0,48(a2)
    1619:	0001                	nop
    161b:	0000                	unimp
    161d:	0000                	unimp
    161f:	0300                	addi	s0,sp,384
    1621:	7900                	ld	s0,48(a0)
    1623:	9f7f                	0x9f7f
    1625:	01fa                	slli	gp,gp,0x1e
    1627:	0000                	unimp
    1629:	0000                	unimp
    162b:	0000                	unimp
    162d:	0200                	addi	s0,sp,256
    162f:	0000                	unimp
    1631:	0000                	unimp
    1633:	0000                	unimp
    1635:	0001                	nop
    1637:	0059                	c.nop	22
	...

Disassembly of section .debug_abbrev:

0000000000000000 <$d.7>:
   0:	1101                	addi	sp,sp,-32
   2:	2501                	sext.w	a0,a0
   4:	130e                	slli	t1,t1,0x23
   6:	0305                	addi	t1,t1,1
   8:	100e                	c.slli	zero,0x23
   a:	110e1b17          	auipc	s6,0x110e1
   e:	5501                	li	a0,-32
  10:	02000017          	auipc	zero,0x2000
  14:	0034                	addi	a3,sp,8
  16:	1349                	addi	t1,t1,-14
  18:	0b3a                	slli	s6,s6,0xe
  1a:	18020b3b          	0x18020b3b
  1e:	0000                	unimp
  20:	49010103          	lb	sp,1168(sp)
  24:	04000013          	li	zero,64
  28:	0021                	c.nop	8
  2a:	1349                	addi	t1,t1,-14
  2c:	00000b37          	lui	s6,0x0
  30:	2405                	addiw	s0,s0,1
  32:	0300                	addi	s0,sp,384
  34:	3e0e                	fld	ft8,224(sp)
  36:	000b0b0b          	0xb0b0b
  3a:	0600                	addi	s0,sp,768
  3c:	0024                	addi	s1,sp,8
  3e:	0b0b0e03          	lb	t3,176(s6) # b0 <$d.7+0xb0>
  42:	0b3e                	slli	s6,s6,0xf
  44:	0000                	unimp
  46:	11012e07          	flw	ft8,272(sp)
  4a:	1201                	addi	tp,tp,-32
  4c:	4006                	0x4006
  4e:	9718                	0x9718
  50:	1942                	slli	s2,s2,0x30
  52:	1331                	addi	t1,t1,-20
  54:	0000                	unimp
  56:	3408                	fld	fa0,40(s0)
  58:	0300                	addi	s0,sp,384
  5a:	490e                	lw	s2,192(sp)
  5c:	3b0b3a13          	sltiu	s4,s6,944
  60:	0018020b          	0x18020b
  64:	0900                	addi	s0,sp,144
  66:	0005                	c.nop	1
  68:	1702                	slli	a4,a4,0x20
  6a:	1331                	addi	t1,t1,-20
  6c:	0000                	unimp
  6e:	340a                	fld	fs0,160(sp)
  70:	0200                	addi	s0,sp,256
  72:	00133117          	auipc	sp,0x133
  76:	0b00                	addi	s0,sp,400
  78:	8289                	srli	a3,a3,0x2
  7a:	0001                	nop
  7c:	1331                	addi	t1,t1,-20
  7e:	0111                	addi	sp,sp,4
  80:	0000                	unimp
  82:	160c                	addi	a1,sp,800
  84:	4900                	lw	s0,16(a0)
  86:	3a0e0313          	addi	t1,t3,928 # 1d3a0 <_binary_shell_bin_size+0xd080>
  8a:	000b3b0b          	0xb3b0b
  8e:	0d00                	addi	s0,sp,656
  90:	0034                	addi	a3,sp,8
  92:	1349                	addi	t1,t1,-14
  94:	0b3a                	slli	s6,s6,0xe
  96:	1802053b          	0x1802053b
  9a:	0000                	unimp
  9c:	340e                	fld	fs0,224(sp)
  9e:	0300                	addi	s0,sp,384
  a0:	490e                	lw	s2,192(sp)
  a2:	3a193f13          	sltiu	t5,s2,929
  a6:	020b3b0b          	0x20b3b0b
  aa:	0018                	0x18
  ac:	0f00                	addi	s0,sp,912
  ae:	0e030113          	addi	sp,t1,224 # fffffffffffe90e0 <__free_ram_end+0xffffffff7bda70e0>
  b2:	0b3a050b          	0xb3a050b
  b6:	00000b3b          	addw	s6,zero,zero
  ba:	0d10                	addi	a2,sp,656
  bc:	0300                	addi	s0,sp,384
  be:	490e                	lw	s2,192(sp)
  c0:	3b0b3a13          	sltiu	s4,s6,944
  c4:	000b380b          	0xb380b
  c8:	1100                	addi	s0,sp,160
  ca:	1349000f          	0x1349000f
  ce:	0000                	unimp
  d0:	2112                	fld	ft2,256(sp)
  d2:	4900                	lw	s0,16(a0)
  d4:	00053713          	sltiu	a4,a0,0
  d8:	1300                	addi	s0,sp,416
  da:	0034                	addi	a3,sp,8
  dc:	13490e03          	lb	t3,308(s2)
  e0:	0b3a193f 1802053b 	0x1802053b0b3a193f
  e8:	0000                	unimp
  ea:	0f14                	addi	a3,sp,912
  ec:	0000                	unimp
  ee:	1500                	addi	s0,sp,672
  f0:	0016                	c.slli	zero,0x5
  f2:	1349                	addi	t1,t1,-14
  f4:	0b3a0e03          	lb	t3,179(s4)
  f8:	0000053b          	addw	a0,zero,zero
  fc:	0516                	slli	a0,a0,0x5
  fe:	0200                	addi	s0,sp,256
 100:	3118                	fld	fa4,32(a0)
 102:	17000013          	li	zero,368
 106:	0034                	addi	a3,sp,8
 108:	1802                	slli	a6,a6,0x20
 10a:	1331                	addi	t1,t1,-20
 10c:	0000                	unimp
 10e:	2e18                	fld	fa4,24(a2)
 110:	0301                	addi	t1,t1,0
 112:	3a0e                	fld	fs4,224(sp)
 114:	270b3b0b          	0x270b3b0b
 118:	4919                	li	s2,6
 11a:	20193f13          	sltiu	t5,s2,513
 11e:	1900000b          	0x1900000b
 122:	0005                	c.nop	1
 124:	0b3a0e03          	lb	t3,179(s4)
 128:	13490b3b          	0x13490b3b
 12c:	0000                	unimp
 12e:	341a                	fld	fs0,416(sp)
 130:	0300                	addi	s0,sp,384
 132:	3a0e                	fld	fs4,224(sp)
 134:	490b3b0b          	0x490b3b0b
 138:	1b000013          	li	zero,432
 13c:	0e030113          	addi	sp,t1,224
 140:	0b3a0b0b          	0xb3a0b0b
 144:	00000b3b          	addw	s6,zero,zero
 148:	1d1c                	addi	a5,sp,688
 14a:	3101                	addiw	sp,sp,-32
 14c:	12011113          	0x12011113
 150:	5806                	lw	a6,96(sp)
 152:	570b590b          	0x570b590b
 156:	1d00000b          	0x1d00000b
 15a:	0005                	c.nop	1
 15c:	0d1c                	addi	a5,sp,656
 15e:	1331                	addi	t1,t1,-20
 160:	0000                	unimp
 162:	341e                	fld	fs0,480(sp)
 164:	1c00                	addi	s0,sp,560
 166:	310d                	addiw	sp,sp,-29
 168:	1f000013          	li	zero,496
 16c:	012e                	slli	sp,sp,0xb
 16e:	0111                	addi	sp,sp,4
 170:	0612                	slli	a2,a2,0x4
 172:	1840                	addi	s0,sp,52
 174:	03194297          	auipc	t0,0x3194
 178:	3a0e                	fld	fs4,224(sp)
 17a:	270b3b0b          	0x270b3b0b
 17e:	4919                	li	s2,6
 180:	00193f13          	seqz	t5,s2
 184:	2000                	fld	fs0,0(s0)
 186:	0034                	addi	a3,sp,8
 188:	1702                	slli	a4,a4,0x20
 18a:	0b3a0e03          	lb	t3,179(s4)
 18e:	13490b3b          	0x13490b3b
 192:	0000                	unimp
 194:	2e21                	addiw	t3,t3,8
 196:	1100                	addi	s0,sp,160
 198:	1201                	addi	tp,tp,-32
 19a:	4006                	0x4006
 19c:	9718                	0x9718
 19e:	1942                	slli	s2,s2,0x30
 1a0:	0b3a0e03          	lb	t3,179(s4)
 1a4:	19270b3b          	0x19270b3b
 1a8:	0000193f 11012e22 	0x11012e220000193f
 1b0:	1201                	addi	tp,tp,-32
 1b2:	4006                	0x4006
 1b4:	9718                	0x9718
 1b6:	1942                	slli	s2,s2,0x30
 1b8:	0b3a0e03          	lb	t3,179(s4)
 1bc:	193f0b3b          	0x193f0b3b
 1c0:	0000                	unimp
 1c2:	03012e23          	sw	a6,60(sp) # 1330ae <_binary_shell_bin_size+0x122d8e>
 1c6:	3a0e                	fld	fs4,224(sp)
 1c8:	270b3b0b          	0x270b3b0b
 1cc:	3c19                	addiw	s8,s8,-26
 1ce:	3f19                	addiw	t5,t5,-26
 1d0:	0019                	c.nop	6
 1d2:	2400                	fld	fs0,8(s0)
 1d4:	0005                	c.nop	1
 1d6:	1349                	addi	t1,t1,-14
 1d8:	0000                	unimp
 1da:	1825                	addi	a6,a6,-23
 1dc:	0000                	unimp
 1de:	2600                	fld	fs0,8(a2)
 1e0:	0026                	c.slli	zero,0x9
 1e2:	1349                	addi	t1,t1,-14
 1e4:	0000                	unimp
 1e6:	03012e27          	fsw	fa6,60(sp)
 1ea:	3a0e                	fld	fs4,224(sp)
 1ec:	270b3b0b          	0x270b3b0b
 1f0:	4919                	li	s2,6
 1f2:	3f193c13          	sltiu	s8,s2,1009
 1f6:	0019                	c.nop	6
 1f8:	2800                	fld	fs0,16(s0)
 1fa:	012e                	slli	sp,sp,0xb
 1fc:	0111                	addi	sp,sp,4
 1fe:	0612                	slli	a2,a2,0x4
 200:	1840                	addi	s0,sp,52
 202:	03194297          	auipc	t0,0x3194
 206:	3a0e                	fld	fs4,224(sp)
 208:	270b3b0b          	0x270b3b0b
 20c:	3f19                	addiw	t5,t5,-26
 20e:	0019                	c.nop	6
 210:	2900                	fld	fs0,16(a0)
 212:	0005                	c.nop	1
 214:	1702                	slli	a4,a4,0x20
 216:	0b3a0e03          	lb	t3,179(s4)
 21a:	13490b3b          	0x13490b3b
 21e:	0000                	unimp
 220:	0b2a                	slli	s6,s6,0xa
 222:	1101                	addi	sp,sp,-32
 224:	1201                	addi	tp,tp,-32
 226:	0006                	c.slli	zero,0x1
 228:	2b00                	fld	fs0,16(a4)
 22a:	0005                	c.nop	1
 22c:	0f1c                	addi	a5,sp,912
 22e:	1331                	addi	t1,t1,-20
 230:	0000                	unimp
 232:	2e2c                	fld	fa1,88(a2)
 234:	1101                	addi	sp,sp,-32
 236:	1201                	addi	tp,tp,-32
 238:	4006                	0x4006
 23a:	9718                	0x9718
 23c:	1942                	slli	s2,s2,0x30
 23e:	0b3a0e03          	lb	t3,179(s4)
 242:	1927053b          	0x1927053b
 246:	1349                	addi	t1,t1,-14
 248:	0000193f 0200052d 	0x200052d0000193f
 250:	3a0e0317          	auipc	t1,0x3a0e0
 254:	49053b0b          	0x49053b0b
 258:	2e000013          	li	zero,736
 25c:	0034                	addi	a3,sp,8
 25e:	1702                	slli	a4,a4,0x20
 260:	0b3a0e03          	lb	t3,179(s4)
 264:	1349053b          	0x1349053b
 268:	0000                	unimp
 26a:	31011d2f          	0x31011d2f
 26e:	58175513          	0x58175513
 272:	5705590b          	0x5705590b
 276:	3000000b          	0x3000000b
 27a:	1755010b          	0x1755010b
 27e:	0000                	unimp
 280:	2631                	addiw	a2,a2,12
 282:	0000                	unimp
 284:	3200                	fld	fs0,32(a2)
 286:	012e                	slli	sp,sp,0xb
 288:	0111                	addi	sp,sp,4
 28a:	0612                	slli	a2,a2,0x4
 28c:	1840                	addi	s0,sp,52
 28e:	03194297          	auipc	t0,0x3194
 292:	3a0e                	fld	fs4,224(sp)
 294:	27053b0b          	0x27053b0b
 298:	3f19                	addiw	t5,t5,-26
 29a:	0019                	c.nop	6
 29c:	3300                	fld	fs0,32(a4)
 29e:	8289                	srli	a3,a3,0x2
 2a0:	0001                	nop
 2a2:	1331                	addi	t1,t1,-20
 2a4:	4295                	li	t0,5
 2a6:	1119                	addi	sp,sp,-26
 2a8:	0001                	nop
 2aa:	3400                	fld	fs0,40(s0)
 2ac:	012e                	slli	sp,sp,0xb
 2ae:	0b3a0e03          	lb	t3,179(s4)
 2b2:	19270b3b          	0x19270b3b
 2b6:	0b20193f 2e350000 	0x2e3500000b20193f
 2be:	0301                	addi	t1,t1,0
 2c0:	3a0e                	fld	fs4,224(sp)
 2c2:	27053b0b          	0x27053b0b
 2c6:	3f19                	addiw	t5,t5,-26
 2c8:	2019                	0x2019
 2ca:	3600000b          	0x3600000b
 2ce:	0000010b          	0x10b
 2d2:	03003437          	lui	s0,0x3003
 2d6:	3a0e                	fld	fs4,224(sp)
 2d8:	49053b0b          	0x49053b0b
 2dc:	38000013          	li	zero,896
 2e0:	011d                	addi	sp,sp,7
 2e2:	1331                	addi	t1,t1,-20
 2e4:	0111                	addi	sp,sp,4
 2e6:	0612                	slli	a2,a2,0x4
 2e8:	0b58                	addi	a4,sp,404
 2ea:	0559                	addi	a0,a0,22
 2ec:	00000b57          	vadd.vv	v22,v0,v0,v0.t
 2f0:	0539                	addi	a0,a0,14
 2f2:	0300                	addi	s0,sp,384
 2f4:	3a0e                	fld	fs4,224(sp)
 2f6:	49053b0b          	0x49053b0b
 2fa:	3a000013          	li	zero,928
 2fe:	0034                	addi	a3,sp,8
 300:	1802                	slli	a6,a6,0x20
 302:	0b3a0e03          	lb	t3,179(s4)
 306:	1349053b          	0x1349053b
 30a:	0000                	unimp
 30c:	11002e3b          	0x11002e3b
 310:	1201                	addi	tp,tp,-32
 312:	4006                	0x4006
 314:	9718                	0x9718
 316:	1942                	slli	s2,s2,0x30
 318:	0b3a0e03          	lb	t3,179(s4)
 31c:	1927053b          	0x1927053b
 320:	0000193f  	0x11101000000193f

0000000000000325 <$d.3>:
 325:	1101                	addi	sp,sp,-32
 327:	2501                	sext.w	a0,a0
 329:	130e                	slli	t1,t1,0x23
 32b:	0305                	addi	t1,t1,1
 32d:	100e                	c.slli	zero,0x23
 32f:	110e1b17          	auipc	s6,0x110e1
 333:	1201                	addi	tp,tp,-32
 335:	0006                	c.slli	zero,0x1
 337:	0200                	addi	s0,sp,256
 339:	0034                	addi	a3,sp,8
 33b:	1349                	addi	t1,t1,-14
 33d:	0b3a                	slli	s6,s6,0xe
 33f:	18020b3b          	0x18020b3b
 343:	0000                	unimp
 345:	49010103          	lb	sp,1168(sp)
 349:	04000013          	li	zero,64
 34d:	0021                	c.nop	8
 34f:	1349                	addi	t1,t1,-14
 351:	00000b37          	lui	s6,0x0
 355:	2405                	addiw	s0,s0,1
 357:	0300                	addi	s0,sp,384
 359:	3e0e                	fld	ft8,224(sp)
 35b:	000b0b0b          	0xb0b0b
 35f:	0600                	addi	s0,sp,768
 361:	0024                	addi	s1,sp,8
 363:	0b0b0e03          	lb	t3,176(s6) # b0 <$d.7+0xb0>
 367:	0b3e                	slli	s6,s6,0xf
 369:	0000                	unimp
 36b:	49000f07          	vlsseg3bu.v	v30,(zero),a6,v0.t
 36f:	08000013          	li	zero,128
 373:	0016                	c.slli	zero,0x5
 375:	1349                	addi	t1,t1,-14
 377:	0b3a0e03          	lb	t3,179(s4)
 37b:	00000b3b          	addw	s6,zero,zero
 37f:	2609                	addiw	a2,a2,2
 381:	4900                	lw	s0,16(a0)
 383:	0a000013          	li	zero,160
 387:	012e                	slli	sp,sp,0xb
 389:	0111                	addi	sp,sp,4
 38b:	0612                	slli	a2,a2,0x4
 38d:	1840                	addi	s0,sp,52
 38f:	03194297          	auipc	t0,0x3194
 393:	3a0e                	fld	fs4,224(sp)
 395:	270b3b0b          	0x270b3b0b
 399:	4919                	li	s2,6
 39b:	00193f13          	seqz	t5,s2
 39f:	0b00                	addi	s0,sp,400
 3a1:	0005                	c.nop	1
 3a3:	1802                	slli	a6,a6,0x20
 3a5:	0b3a0e03          	lb	t3,179(s4)
 3a9:	13490b3b          	0x13490b3b
 3ad:	0000                	unimp
 3af:	050c                	addi	a1,sp,640
 3b1:	0200                	addi	s0,sp,256
 3b3:	3a0e0317          	auipc	t1,0x3a0e0
 3b7:	490b3b0b          	0x490b3b0b
 3bb:	0d000013          	li	zero,208
 3bf:	0034                	addi	a3,sp,8
 3c1:	1702                	slli	a4,a4,0x20
 3c3:	0b3a0e03          	lb	t3,179(s4)
 3c7:	13490b3b          	0x13490b3b
 3cb:	0000                	unimp
 3cd:	340e                	fld	fs0,224(sp)
 3cf:	0200                	addi	s0,sp,256
 3d1:	0318                	addi	a4,sp,384
 3d3:	3a0e                	fld	fs4,224(sp)
 3d5:	490b3b0b          	0x490b3b0b
 3d9:	0f000013          	li	zero,240
 3dd:	012e                	slli	sp,sp,0xb
 3df:	0111                	addi	sp,sp,4
 3e1:	0612                	slli	a2,a2,0x4
 3e3:	1840                	addi	s0,sp,52
 3e5:	03194297          	auipc	t0,0x3194
 3e9:	3a0e                	fld	fs4,224(sp)
 3eb:	270b3b0b          	0x270b3b0b
 3ef:	3f19                	addiw	t5,t5,-26
 3f1:	0019                	c.nop	6
 3f3:	1000                	addi	s0,sp,32
 3f5:	000a                	c.slli	zero,0x2
 3f7:	0b3a0e03          	lb	t3,179(s4)
 3fb:	01110b3b          	addw	s6,sp,a7
 3ff:	0000                	unimp
 401:	0b11                	addi	s6,s6,4
 403:	5501                	li	a0,-32
 405:	12000017          	auipc	zero,0x12000
 409:	0034                	addi	a3,sp,8
 40b:	0b3a0e03          	lb	t3,179(s4)
 40f:	13490b3b          	0x13490b3b
 413:	0000                	unimp
 415:	11010b13          	addi	s6,sp,272
 419:	1201                	addi	tp,tp,-32
 41b:	0006                	c.slli	zero,0x1
 41d:	1400                	addi	s0,sp,544
 41f:	0018                	0x18
 421:	0000                	unimp
 423:	8915                	andi	a0,a0,5
 425:	0182                	c.slli64	gp
 427:	3100                	fld	fs0,32(a0)
 429:	00011113          	slli	sp,sp,0x0
 42d:	1600                	addi	s0,sp,800
 42f:	012e                	slli	sp,sp,0xb
 431:	0b3a0e03          	lb	t3,179(s4)
 435:	19270b3b          	0x19270b3b
 439:	193c                	addi	a5,sp,184
 43b:	0000193f 49000517 	0x490005170000193f
 443:	18000013          	li	zero,384
 447:	0000000f          	fence	unknown,unknown
 44b:	2619                	addiw	a2,a2,6
 44d:	0000                	unimp
 44f:	1a00                	addi	s0,sp,304
 451:	0016                	c.slli	zero,0x5
 453:	1349                	addi	t1,t1,-14
 455:	00000e03          	lb	t3,0(zero) # 0 <$d.7>
	...

Disassembly of section .debug_info:

0000000000000000 <$d.8>:
       0:	1094                	addi	a3,sp,96
       2:	0000                	unimp
       4:	0004                	0x4
       6:	0000                	unimp
       8:	0000                	unimp
       a:	0108                	addi	a0,sp,128
       c:	0122                	slli	sp,sp,0x8
       e:	0000                	unimp
      10:	001d                	c.nop	7
	...
      1a:	02ad                	addi	t0,t0,11
	...
      24:	0000                	unimp
      26:	0160                	addi	s0,sp,140
      28:	0000                	unimp
      2a:	3b02                	fld	fs6,32(sp)
      2c:	0000                	unimp
      2e:	0100                	addi	s0,sp,128
      30:	45030987          	0x45030987
      34:	200d                	0x200d
      36:	0080                	addi	s0,sp,64
      38:	0000                	unimp
      3a:	0300                	addi	s0,sp,384
      3c:	00000047          	fmsub.s	ft0,ft0,ft0,ft0,rne
      40:	4e04                	lw	s1,24(a2)
      42:	0000                	unimp
      44:	1800                	addi	s0,sp,48
      46:	0500                	addi	s0,sp,640
      48:	01e0                	addi	s0,sp,204
      4a:	0000                	unimp
      4c:	0108                	addi	a0,sp,128
      4e:	0206                	slli	tp,tp,0x1
      50:	08000003          	lb	zero,128(zero) # 80 <$d.8+0x80>
      54:	00660207          	0x660207
      58:	0000                	unimp
      5a:	8701                	c.srai64	a4
      5c:	0309                	addi	t1,t1,2
      5e:	0bdc                	addi	a5,sp,468
      60:	8020                	0x8020
      62:	0000                	unimp
      64:	0000                	unimp
      66:	00004703          	lbu	a4,0(zero) # 0 <$d.8>
      6a:	0400                	addi	s0,sp,512
      6c:	004e                	c.slli	zero,0x13
      6e:	0000                	unimp
      70:	0009                	c.nop	2
      72:	20014407          	flq	fs0,512(sp)
      76:	0080                	addi	s0,sp,64
      78:	0000                	unimp
      7a:	5a00                	lw	s0,48(a2)
      7c:	0000                	unimp
      7e:	0100                	addi	s0,sp,128
      80:	1f52                	slli	t5,t5,0x34
      82:	0006                	c.slli	zero,0x1
      84:	0800                	addi	s0,sp,16
      86:	005c                	addi	a5,sp,4
      88:	0000                	unimp
      8a:	000000c7          	fmsub.s	ft1,ft0,ft0,ft0,rne
      8e:	b401                	j	fffffffffffffa8e <__free_ram_end+0xffffffff7bdbda8e>
      90:	0309                	addi	t1,t1,2
      92:	1080                	addi	s0,sp,96
      94:	8021                	srli	s0,s0,0x8
      96:	0000                	unimp
      98:	0000                	unimp
      9a:	8009                	srli	s0,s0,0x2
      9c:	0001                	nop
      9e:	2b00                	fld	fs0,16(a4)
      a0:	0006                	c.slli	zero,0x1
      a2:	0a00                	addi	s0,sp,272
      a4:	000001b3          	add	gp,zero,zero
      a8:	0636                	slli	a2,a2,0xd
      aa:	0000                	unimp
      ac:	0005d70b          	0x5d70b
      b0:	8600                	0x8600
      b2:	2001                	0x2001
      b4:	0080                	addi	s0,sp,64
      b6:	0000                	unimp
      b8:	0b00                	addi	s0,sp,400
      ba:	0604                	addi	s1,sp,768
      bc:	0000                	unimp
      be:	0194                	addi	a3,sp,192
      c0:	8020                	0x8020
      c2:	0000                	unimp
      c4:	0000                	unimp
      c6:	0c00                	addi	s0,sp,528
      c8:	00d2                	slli	ra,ra,0x14
      ca:	0000                	unimp
      cc:	0000006f          	j	cc <$d.8+0xcc>
      d0:	0a02                	c.slli64	s4
      d2:	dd0c                	sw	a1,56(a0)
      d4:	0000                	unimp
      d6:	7100                	ld	s0,32(a0)
      d8:	0002                	c.slli64	zero
      da:	0200                	addi	s0,sp,256
      dc:	0508                	addi	a0,sp,640
      de:	00000383          	lb	t2,0(zero) # 0 <$d.8>
      e2:	f5020807          	0xf5020807
      e6:	0000                	unimp
      e8:	0100                	addi	s0,sp,128
      ea:	09b9                	addi	s3,s3,14
      ec:	200c7103          	0x200c7103
      f0:	0080                	addi	s0,sp,64
      f2:	0000                	unimp
      f4:	0300                	addi	s0,sp,384
      f6:	00000047          	fmsub.s	ft0,ft0,ft0,ft0,rne
      fa:	4e04                	lw	s1,24(a2)
      fc:	0000                	unimp
      fe:	1d00                	addi	s0,sp,688
     100:	0200                	addi	s0,sp,256
     102:	0112                	slli	sp,sp,0x4
     104:	0000                	unimp
     106:	d901                	beqz	a0,16 <$d.8+0x16>
     108:	0309                	addi	t1,t1,2
     10a:	0cb0                	addi	a2,sp,600
     10c:	8020                	0x8020
     10e:	0000                	unimp
     110:	0000                	unimp
     112:	00004703          	lbu	a4,0(zero) # 0 <$d.8>
     116:	0400                	addi	s0,sp,512
     118:	004e                	c.slli	zero,0x13
     11a:	0000                	unimp
     11c:	0022                	c.slli	zero,0x8
     11e:	1202                	slli	tp,tp,0x20
     120:	0001                	nop
     122:	0100                	addi	s0,sp,128
     124:	09dc                	addi	a5,sp,212
     126:	200c8e03          	lb	t3,512(s9)
     12a:	0080                	addi	s0,sp,64
     12c:	0000                	unimp
     12e:	0d00                	addi	s0,sp,656
     130:	0141                	addi	sp,sp,16
     132:	0000                	unimp
     134:	2701                	sext.w	a4,a4
     136:	0901                	addi	s2,s2,0
     138:	200ce303          	lwu	t1,512(s9)
     13c:	0080                	addi	s0,sp,64
     13e:	0000                	unimp
     140:	0300                	addi	s0,sp,384
     142:	00000047          	fmsub.s	ft0,ft0,ft0,ft0,rne
     146:	4e04                	lw	s1,24(a2)
     148:	0000                	unimp
     14a:	2500                	fld	fs0,8(a0)
     14c:	0d00                	addi	s0,sp,656
     14e:	015f 0000 8001      	0x80010000015f
     154:	0901                	addi	s2,s2,0
     156:	200c3403          	ld	s0,512(s8)
     15a:	0080                	addi	s0,sp,64
     15c:	0000                	unimp
     15e:	0300                	addi	s0,sp,384
     160:	00000047          	fmsub.s	ft0,ft0,ft0,ft0,rne
     164:	4e04                	lw	s1,24(a2)
     166:	0000                	unimp
     168:	1400                	addi	s0,sp,544
     16a:	0d00                	addi	s0,sp,656
     16c:	015f 0000 8901      	0x89010000015f
     172:	0901                	addi	s2,s2,0
     174:	200c2003          	lw	zero,512(s8)
     178:	0080                	addi	s0,sp,64
     17a:	0000                	unimp
     17c:	0d00                	addi	s0,sp,656
     17e:	0000018f          	0x18f
     182:	a201                	j	282 <$d.9+0x52>
     184:	0901                	addi	s2,s2,0
     186:	200c4803          	lbu	a6,512(s8)
     18a:	0080                	addi	s0,sp,64
     18c:	0000                	unimp
     18e:	0300                	addi	s0,sp,384
     190:	00000047          	fmsub.s	ft0,ft0,ft0,ft0,rne
     194:	4e04                	lw	s1,24(a2)
     196:	0000                	unimp
     198:	2900                	fld	fs0,16(a0)
     19a:	0d00                	addi	s0,sp,656
     19c:	01ad                	addi	gp,gp,11
     19e:	0000                	unimp
     1a0:	b001                	j	fffffffffffff9a0 <__free_ram_end+0xffffffff7bdbd9a0>
     1a2:	0901                	addi	s2,s2,0
     1a4:	200d0803          	lb	a6,512(s10) # 1200 <$d.2+0x77>
     1a8:	0080                	addi	s0,sp,64
     1aa:	0000                	unimp
     1ac:	0300                	addi	s0,sp,384
     1ae:	00000047          	fmsub.s	ft0,ft0,ft0,ft0,rne
     1b2:	4e04                	lw	s1,24(a2)
     1b4:	0000                	unimp
     1b6:	3d00                	fld	fs0,56(a0)
     1b8:	0d00                	addi	s0,sp,656
     1ba:	000001cb          	fnmsub.s	ft3,ft0,ft0,ft0,rne
     1be:	db01                	beqz	a4,ce <$d.8+0xce>
     1c0:	0901                	addi	s2,s2,0
     1c2:	200be503          	lwu	a0,512(s7)
     1c6:	0080                	addi	s0,sp,64
     1c8:	0000                	unimp
     1ca:	0300                	addi	s0,sp,384
     1cc:	00000047          	fmsub.s	ft0,ft0,ft0,ft0,rne
     1d0:	4e04                	lw	s1,24(a2)
     1d2:	0000                	unimp
     1d4:	3b00                	fld	fs0,48(a4)
     1d6:	0e00                	addi	s0,sp,784
     1d8:	0391                	addi	t2,t2,4
     1da:	0000                	unimp
     1dc:	01ec                	addi	a1,sp,204
     1de:	0000                	unimp
     1e0:	1701                	addi	a4,a4,-32
     1e2:	0309                	addi	t1,t1,2
     1e4:	1088                	addi	a0,sp,96
     1e6:	8021                	srli	s0,s0,0x8
     1e8:	0000                	unimp
     1ea:	0000                	unimp
     1ec:	0001f803          	0x1f803
     1f0:	0400                	addi	s0,sp,512
     1f2:	004e                	c.slli	zero,0x13
     1f4:	0000                	unimp
     1f6:	0008                	0x8
     1f8:	0000770f          	0x770f
     1fc:	1800                	addi	s0,sp,48
     1fe:	0320                	addi	s0,sp,392
     200:	01e5100f          	0x1e5100f
     204:	0000                	unimp
     206:	023e                	slli	tp,tp,0xf
     208:	0000                	unimp
     20a:	10001003          	lh	zero,256(zero) # 100 <$d.8+0x100>
     20e:	00b9                	addi	ra,ra,14
     210:	0000                	unimp
     212:	023e                	slli	tp,tp,0xf
     214:	0000                	unimp
     216:	10041103          	lh	sp,256(s0) # 3003100 <_binary_shell_bin_size+0x2ff2de0>
     21a:	0204                	addi	s1,sp,256
     21c:	0000                	unimp
     21e:	0245                	addi	tp,tp,17
     220:	0000                	unimp
     222:	10081203          	lh	tp,256(a6) # ffffffffffff9100 <__free_ram_end+0xffffffff7bdb7100>
     226:	0239                	addi	tp,tp,14
     228:	0000                	unimp
     22a:	0250                	addi	a2,sp,260
     22c:	0000                	unimp
     22e:	10101303          	lh	t1,257(zero) # 101 <$d.8+0x101>
     232:	0244                	addi	s1,sp,260
     234:	0000                	unimp
     236:	0255                	addi	tp,tp,21
     238:	0000                	unimp
     23a:	00181403          	lh	s0,1(a6)
     23e:	e905                	bnez	a0,26e <$d.9+0x3e>
     240:	0001                	nop
     242:	0500                	addi	s0,sp,640
     244:	0c04                	addi	s1,sp,528
     246:	00d2                	slli	ra,ra,0x14
     248:	0000                	unimp
     24a:	0316                	slli	t1,t1,0x5
     24c:	0000                	unimp
     24e:	0b02                	c.slli64	s6
     250:	d211                	beqz	a2,154 <$d.10+0x32>
     252:	0000                	unimp
     254:	0300                	addi	s0,sp,384
     256:	0262                	slli	tp,tp,0x18
     258:	0000                	unimp
     25a:	4e12                	lw	t3,4(sp)
     25c:	0000                	unimp
     25e:	0000                	unimp
     260:	0020                	addi	s0,sp,8
     262:	6d0c                	ld	a1,24(a0)
     264:	0002                	c.slli64	zero
     266:	3f00                	fld	fs0,56(a4)
     268:	02000003          	lb	zero,32(zero) # 20 <$d.8+0x20>
     26c:	0504                	addi	s1,sp,640
     26e:	01c2                	slli	gp,gp,0x10
     270:	0000                	unimp
     272:	0108                	addi	a0,sp,128
     274:	8b0e                	mv	s6,gp
     276:	0001                	nop
     278:	8900                	0x8900
     27a:	0002                	c.slli64	zero
     27c:	0100                	addi	s0,sp,128
     27e:	0918                	addi	a4,sp,144
     280:	22115003          	lhu	zero,545(sp)
     284:	0080                	addi	s0,sp,64
     286:	0000                	unimp
     288:	1100                	addi	s0,sp,160
     28a:	01f8                	addi	a4,sp,204
     28c:	0000                	unimp
     28e:	080e                	slli	a6,a6,0x3
     290:	0001                	nop
     292:	8900                	0x8900
     294:	0002                	c.slli64	zero
     296:	0100                	addi	s0,sp,128
     298:	0919                	addi	s2,s2,6
     29a:	22114803          	lbu	a6,545(sp)
     29e:	0080                	addi	s0,sp,64
     2a0:	0000                	unimp
     2a2:	1300                	addi	s0,sp,416
     2a4:	000003bf 00000289 	0x289000003bf
     2ac:	7c01                	lui	s8,0xfffe0
     2ae:	0901                	addi	s2,s2,0
     2b0:	22115803          	lhu	a6,545(sp)
     2b4:	0080                	addi	s0,sp,64
     2b6:	0000                	unimp
     2b8:	1300                	addi	s0,sp,416
     2ba:	000003d3          	fadd.s	ft7,ft0,ft0,rne
     2be:	0289                	addi	t0,t0,2
     2c0:	0000                	unimp
     2c2:	7d01                	lui	s10,0xfffe0
     2c4:	0901                	addi	s2,s2,0
     2c6:	22116003          	lwu	zero,545(sp)
     2ca:	0080                	addi	s0,sp,64
     2cc:	0000                	unimp
     2ce:	1400                	addi	s0,sp,544
     2d0:	d511                	beqz	a0,1dc <$d.5+0x4c>
     2d2:	0002                	c.slli64	zero
     2d4:	0c00                	addi	s0,sp,528
     2d6:	00dd                	addi	ra,ra,23
     2d8:	0000                	unimp
     2da:	0271                	addi	tp,tp,28
     2dc:	0000                	unimp
     2de:	6204                	ld	s1,0(a2)
     2e0:	d20c                	sw	a1,32(a2)
     2e2:	0000                	unimp
     2e4:	a600                	fsd	fs0,8(a2)
     2e6:	0000                	unimp
     2e8:	0200                	addi	s0,sp,256
     2ea:	1509                	addi	a0,a0,-30
     2ec:	00dd                	addi	ra,ra,23
     2ee:	0000                	unimp
     2f0:	007f                	0x7f
     2f2:	0000                	unimp
     2f4:	2a04                	fld	fs1,16(a2)
     2f6:	0701                	addi	a4,a4,0
     2f8:	0010                	0x10
     2fa:	8020                	0x8020
     2fc:	0000                	unimp
     2fe:	0000                	unimp
     300:	0006                	c.slli	zero,0x1
     302:	0000                	unimp
     304:	5201                	li	tp,-32
     306:	037f                	0x37f
     308:	0000                	unimp
     30a:	0009                	c.nop	2
     30c:	0000                	unimp
     30e:	8b00                	0x8b00
     310:	09000003          	lb	zero,144(zero) # 90 <$d.8+0x90>
     314:	00000033          	add	zero,zero,zero
     318:	0396                	slli	t2,t2,0x5
     31a:	0000                	unimp
     31c:	0116                	slli	sp,sp,0x5
     31e:	a15c                	fsd	fa5,128(a0)
     320:	16000003          	lb	zero,352(zero) # 160 <$d.10+0x3e>
     324:	5d01                	li	s10,-32
     326:	03ac                	addi	a1,sp,456
     328:	0000                	unimp
     32a:	0116                	slli	sp,sp,0x5
     32c:	b75e                	fsd	fs7,424(sp)
     32e:	16000003          	lb	zero,352(zero) # 160 <$d.10+0x3e>
     332:	5f01                	li	t5,-32
     334:	03c2                	slli	t2,t2,0x10
     336:	0000                	unimp
     338:	0116                	slli	sp,sp,0x5
     33a:	cd60                	sw	s0,92(a0)
     33c:	16000003          	lb	zero,352(zero) # 160 <$d.10+0x3e>
     340:	6101                	0x6101
     342:	03d8                	addi	a4,sp,452
     344:	0000                	unimp
     346:	305a0117          	auipc	sp,0x305a0
     34a:	0004                	0x4
     34c:	1700                	addi	s0,sp,928
     34e:	5b01                	li	s6,-32
     350:	000003e3          	beqz	zero,b56 <$d.10+0x1cf>
     354:	ee5c0117          	auipc	sp,0xee5c0
     358:	17000003          	lb	zero,368(zero) # 170 <$d.10+0x4e>
     35c:	5d01                	li	s10,-32
     35e:	03f9                	addi	t2,t2,30
     360:	0000                	unimp
     362:	045e0117          	auipc	sp,0x45e0
     366:	0004                	0x4
     368:	1700                	addi	s0,sp,928
     36a:	5f01                	li	t5,-32
     36c:	0000040f          	0x40f
     370:	1a600117          	auipc	sp,0x1a600
     374:	0004                	0x4
     376:	1700                	addi	s0,sp,928
     378:	6101                	0x6101
     37a:	0425                	addi	s0,s0,9
     37c:	0000                	unimp
     37e:	1800                	addi	s0,sp,48
     380:	000000bf 043c1b01 	0x43c1b01000000bf
     388:	0000                	unimp
     38a:	1901                	addi	s2,s2,-32
     38c:	037e                	slli	t1,t1,0x1f
     38e:	0000                	unimp
     390:	1b01                	addi	s6,s6,-32
     392:	045d                	addi	s0,s0,23
     394:	0000                	unimp
     396:	da19                	beqz	a2,2ac <$d.9+0x7c>
     398:	01000003          	lb	zero,16(zero) # 10 <$d.8+0x10>
     39c:	00045d1b          	srliw	s10,s0,0x0
     3a0:	1900                	addi	s0,sp,176
     3a2:	03ad                	addi	t2,t2,11
     3a4:	0000                	unimp
     3a6:	1b01                	addi	s6,s6,-32
     3a8:	045d                	addi	s0,s0,23
     3aa:	0000                	unimp
     3ac:	8919                	andi	a0,a0,6
     3ae:	0000                	unimp
     3b0:	0100                	addi	s0,sp,128
     3b2:	00045d1b          	srliw	s10,s0,0x0
     3b6:	1900                	addi	s0,sp,176
     3b8:	00d4                	addi	a3,sp,68
     3ba:	0000                	unimp
     3bc:	1b01                	addi	s6,s6,-32
     3be:	045d                	addi	s0,s0,23
     3c0:	0000                	unimp
     3c2:	1e19                	addi	t3,t3,-26
     3c4:	01000003          	lb	zero,16(zero) # 10 <$d.8+0x10>
     3c8:	5d1c                	lw	a5,56(a0)
     3ca:	0004                	0x4
     3cc:	1900                	addi	s0,sp,176
     3ce:	0281                	addi	t0,t0,0
     3d0:	0000                	unimp
     3d2:	1c01                	addi	s8,s8,-32
     3d4:	045d                	addi	s0,s0,23
     3d6:	0000                	unimp
     3d8:	4a19                	li	s4,6
     3da:	0002                	c.slli64	zero
     3dc:	0100                	addi	s0,sp,128
     3de:	5d1c                	lw	a5,56(a0)
     3e0:	0004                	0x4
     3e2:	1a00                	addi	s0,sp,304
     3e4:	00000323          	sb	zero,6(zero) # 6 <$d.8+0x6>
     3e8:	1e01                	addi	t3,t3,-32
     3ea:	045d                	addi	s0,s0,23
     3ec:	0000                	unimp
     3ee:	961a                	add	a2,a2,t1
     3f0:	0000                	unimp
     3f2:	0100                	addi	s0,sp,128
     3f4:	5d1f 0004 1a00      	0x1a0000045d1f
     3fa:	00000047          	fmsub.s	ft0,ft0,ft0,ft0,rne
     3fe:	2001                	0x2001
     400:	045d                	addi	s0,s0,23
     402:	0000                	unimp
     404:	851a                	mv	a0,t1
     406:	0002                	c.slli64	zero
     408:	0100                	addi	s0,sp,128
     40a:	5d21                	li	s10,-24
     40c:	0004                	0x4
     40e:	1a00                	addi	s0,sp,304
     410:	0039                	c.nop	14
     412:	0000                	unimp
     414:	2201                	sext.w	tp,tp
     416:	045d                	addi	s0,s0,23
     418:	0000                	unimp
     41a:	d01a                	sw	t1,32(sp)
     41c:	0001                	nop
     41e:	0100                	addi	s0,sp,128
     420:	00045d23          	0x45d23
     424:	1a00                	addi	s0,sp,304
     426:	008e                	slli	ra,ra,0x3
     428:	0000                	unimp
     42a:	2401                	sext.w	s0,s0
     42c:	045d                	addi	s0,s0,23
     42e:	0000                	unimp
     430:	4e1a                	lw	t3,132(sp)
     432:	0002                	c.slli64	zero
     434:	0100                	addi	s0,sp,128
     436:	5d1d                	li	s10,-25
     438:	0004                	0x4
     43a:	0000                	unimp
     43c:	00027a1b          	0x27a1b
     440:	1000                	addi	s0,sp,32
     442:	1f101703          	lh	a4,497(zero) # 1f1 <$d.5+0x61>
     446:	0002                	c.slli64	zero
     448:	5d00                	lw	s0,56(a0)
     44a:	0004                	0x4
     44c:	0300                	addi	s0,sp,384
     44e:	0018                	0x18
     450:	2510                	fld	fa2,8(a0)
     452:	0002                	c.slli64	zero
     454:	5d00                	lw	s0,56(a0)
     456:	0004                	0x4
     458:	0300                	addi	s0,sp,384
     45a:	0819                	addi	a6,a6,6
     45c:	0500                	addi	s0,sp,640
     45e:	0009                	c.nop	2
     460:	0000                	unimp
     462:	0805                	addi	a6,a6,1
     464:	20001607          	0x20001607
     468:	0080                	addi	s0,sp,64
     46a:	0000                	unimp
     46c:	1400                	addi	s0,sp,544
     46e:	0000                	unimp
     470:	0100                	addi	s0,sp,128
     472:	0d52                	slli	s10,s10,0x14
     474:	000a                	c.slli	zero,0x2
     476:	0900                	addi	s0,sp,144
     478:	0066                	c.slli	zero,0x19
     47a:	0000                	unimp
     47c:	0a15                	addi	s4,s4,5
     47e:	0000                	unimp
     480:	7f1c                	ld	a5,56(a4)
     482:	16000003          	lb	zero,352(zero) # 160 <$d.10+0x3e>
     486:	2000                	fld	fs0,0(s0)
     488:	0080                	addi	s0,sp,64
     48a:	0000                	unimp
     48c:	1200                	addi	s0,sp,288
     48e:	0000                	unimp
     490:	0100                	addi	s0,sp,128
     492:	0116032f          	0x116032f
     496:	8b5a                	mv	s6,s6
     498:	1d000003          	lb	zero,464(zero) # 1d0 <$d.5+0x40>
     49c:	9600                	0x9600
     49e:	1d000003          	lb	zero,464(zero) # 1d0 <$d.5+0x40>
     4a2:	a100                	fsd	fs0,0(a0)
     4a4:	1d000003          	lb	zero,464(zero) # 1d0 <$d.5+0x40>
     4a8:	ac00                	fsd	fs0,24(s0)
     4aa:	1d000003          	lb	zero,464(zero) # 1d0 <$d.5+0x40>
     4ae:	b700                	fsd	fs0,40(a4)
     4b0:	1d000003          	lb	zero,464(zero) # 1d0 <$d.5+0x40>
     4b4:	c200                	sw	s0,0(a2)
     4b6:	1d000003          	lb	zero,464(zero) # 1d0 <$d.5+0x40>
     4ba:	cd00                	sw	s0,24(a0)
     4bc:	1d000003          	lb	zero,464(zero) # 1d0 <$d.5+0x40>
     4c0:	d801                	beqz	s0,3d0 <$d.3+0xab>
     4c2:	0a000003          	lb	zero,160(zero) # a0 <$d.8+0xa0>
     4c6:	0099                	addi	ra,ra,6
     4c8:	0000                	unimp
     4ca:	000003e3          	beqz	zero,cd0 <$d.10+0x349>
     4ce:	001e                	c.slli	zero,0x7
     4d0:	03ee                	slli	t2,t2,0x1b
     4d2:	0000                	unimp
     4d4:	001e                	c.slli	zero,0x7
     4d6:	03f9                	addi	t2,t2,30
     4d8:	0000                	unimp
     4da:	001e                	c.slli	zero,0x7
     4dc:	0404                	addi	s1,sp,512
     4de:	0000                	unimp
     4e0:	001e                	c.slli	zero,0x7
     4e2:	0000040f          	0x40f
     4e6:	001e                	c.slli	zero,0x7
     4e8:	041a                	slli	s0,s0,0x6
     4ea:	0000                	unimp
     4ec:	011e                	slli	sp,sp,0x7
     4ee:	0425                	addi	s0,s0,9
     4f0:	0000                	unimp
     4f2:	305a0117          	auipc	sp,0x305a0
     4f6:	0004                	0x4
     4f8:	0000                	unimp
     4fa:	1f00                	addi	s0,sp,944
     4fc:	002a                	c.slli	zero,0xa
     4fe:	8020                	0x8020
     500:	0000                	unimp
     502:	0000                	unimp
     504:	0016                	c.slli	zero,0x5
     506:	0000                	unimp
     508:	5201                	li	tp,-32
     50a:	02de                	slli	t0,t0,0x17
     50c:	0000                	unimp
     50e:	3201                	addiw	tp,tp,-32
     510:	045d                	addi	s0,s0,23
     512:	0000                	unimp
     514:	4b20                	lw	s0,80(a4)
     516:	0001                	nop
     518:	1200                	addi	s0,sp,288
     51a:	0001                	nop
     51c:	0100                	addi	s0,sp,128
     51e:	00043c33          	sltu	s8,s0,zero
     522:	1c00                	addi	s0,sp,560
     524:	037f                	0x37f
     526:	0000                	unimp
     528:	002a                	c.slli	zero,0xa
     52a:	8020                	0x8020
     52c:	0000                	unimp
     52e:	0000                	unimp
     530:	0014                	0x14
     532:	0000                	unimp
     534:	3301                	addiw	t1,t1,-32
     536:	8b001d17          	auipc	s10,0x8b001
     53a:	1d000003          	lb	zero,464(zero) # 1d0 <$d.5+0x40>
     53e:	9600                	0x9600
     540:	1d000003          	lb	zero,464(zero) # 1d0 <$d.5+0x40>
     544:	a100                	fsd	fs0,0(a0)
     546:	1d000003          	lb	zero,464(zero) # 1d0 <$d.5+0x40>
     54a:	ac00                	fsd	fs0,24(s0)
     54c:	1d000003          	lb	zero,464(zero) # 1d0 <$d.5+0x40>
     550:	b700                	fsd	fs0,40(a4)
     552:	1d000003          	lb	zero,464(zero) # 1d0 <$d.5+0x40>
     556:	c200                	sw	s0,0(a2)
     558:	1d000003          	lb	zero,464(zero) # 1d0 <$d.5+0x40>
     55c:	cd00                	sw	s0,24(a0)
     55e:	1d000003          	lb	zero,464(zero) # 1d0 <$d.5+0x40>
     562:	d802                	sw	zero,48(sp)
     564:	0a000003          	lb	zero,160(zero) # a0 <$d.8+0xa0>
     568:	00ce                	slli	ra,ra,0x13
     56a:	0000                	unimp
     56c:	0430                	addi	a2,sp,520
     56e:	0000                	unimp
     570:	160a                	slli	a2,a2,0x22
     572:	0001                	nop
     574:	e300                	sd	s0,0(a4)
     576:	1e000003          	lb	zero,480(zero) # 1e0 <$d.5+0x50>
     57a:	ee00                	sd	s0,24(a2)
     57c:	1e000003          	lb	zero,480(zero) # 1e0 <$d.5+0x50>
     580:	f900                	sd	s0,48(a0)
     582:	1e000003          	lb	zero,480(zero) # 1e0 <$d.5+0x50>
     586:	0400                	addi	s0,sp,512
     588:	0004                	0x4
     58a:	1e00                	addi	s0,sp,816
     58c:	0f00                	addi	s0,sp,912
     58e:	0004                	0x4
     590:	1e00                	addi	s0,sp,816
     592:	1a00                	addi	s0,sp,304
     594:	0004                	0x4
     596:	1e00                	addi	s0,sp,816
     598:	2502                	fld	fa0,0(sp)
     59a:	0004                	0x4
     59c:	0000                	unimp
     59e:	2100                	fld	fs0,0(a0)
     5a0:	0040                	addi	s0,sp,4
     5a2:	8020                	0x8020
     5a4:	0000                	unimp
     5a6:	0000                	unimp
     5a8:	009c                	addi	a5,sp,64
     5aa:	0000                	unimp
     5ac:	5201                	li	tp,-32
     5ae:	03b2                	slli	t2,t2,0xc
     5b0:	0000                	unimp
     5b2:	3701                	addiw	a4,a4,-32
     5b4:	dc22                	sw	s0,56(sp)
     5b6:	2000                	fld	fs0,0(s0)
     5b8:	0080                	addi	s0,sp,64
     5ba:	0000                	unimp
     5bc:	2200                	fld	fs0,0(a2)
     5be:	0000                	unimp
     5c0:	0100                	addi	s0,sp,128
     5c2:	5152                	lw	sp,52(sp)
     5c4:	0002                	c.slli64	zero
     5c6:	0100                	addi	s0,sp,128
     5c8:	0b86                	slli	s7,s7,0x1
     5ca:	000005d7          	vadd.vv	v11,v0,v0,v0.t
     5ce:	00fc                	addi	a5,sp,76
     5d0:	8020                	0x8020
     5d2:	0000                	unimp
     5d4:	0000                	unimp
     5d6:	2300                	fld	fs0,0(a4)
     5d8:	00000397          	auipc	t2,0x0
     5dc:	2302                	fld	ft6,0(sp)
     5de:	e524                	sd	s1,72(a0)
     5e0:	0005                	c.nop	1
     5e2:	2500                	fld	fs0,8(a0)
     5e4:	1100                	addi	s0,sp,160
     5e6:	05ea                	slli	a1,a1,0x1a
     5e8:	0000                	unimp
     5ea:	4726                	lw	a4,72(sp)
     5ec:	0000                	unimp
     5ee:	2100                	fld	fs0,0(a0)
     5f0:	00fe                	slli	ra,ra,0x1f
     5f2:	8020                	0x8020
     5f4:	0000                	unimp
     5f6:	0000                	unimp
     5f8:	0046                	c.slli	zero,0x11
     5fa:	0000                	unimp
     5fc:	5201                	li	tp,-32
     5fe:	0000019b          	sext.w	gp,zero
     602:	8a01                	andi	a2,a2,0
     604:	0001ed27          	vsw.v	v26,(gp),v0.t
     608:	0200                	addi	s0,sp,256
     60a:	cf1f 0002 2400      	0x24000002cf1f
     610:	000002cf          	fnmadd.s	ft5,ft0,ft0,ft0,rne
     614:	4724                	lw	s1,72(a4)
     616:	0000                	unimp
     618:	2400                	fld	fs0,8(s0)
     61a:	02e0                	addi	s0,sp,332
     61c:	0000                	unimp
     61e:	1800                	addi	s0,sp,48
     620:	00ad                	addi	ra,ra,11
     622:	0000                	unimp
     624:	b301                	j	324 <$d.9+0xf4>
     626:	000000c7          	fmsub.s	ft1,ft0,ft0,ft0,rne
     62a:	1901                	addi	s2,s2,-32
     62c:	00000067          	jr	zero # 0 <$d.8>
     630:	b301                	j	330 <$d.3+0xb>
     632:	02d5                	addi	t0,t0,21
     634:	0000                	unimp
     636:	881a                	mv	a6,t1
     638:	0002                	c.slli64	zero
     63a:	0100                	addi	s0,sp,128
     63c:	c7b5                	beqz	a5,6a8 <$d.3+0x383>
     63e:	0000                	unimp
     640:	0000                	unimp
     642:	9e28                	0x9e28
     644:	2001                	0x2001
     646:	0080                	addi	s0,sp,64
     648:	0000                	unimp
     64a:	6400                	ld	s0,8(s0)
     64c:	0001                	nop
     64e:	0100                	addi	s0,sp,128
     650:	6252                	ld	tp,272(sp)
     652:	0002                	c.slli64	zero
     654:	0100                	addi	s0,sp,128
     656:	01e629d3          	fadd.s	fs3,fa2,ft10,rdn
     65a:	0000                	unimp
     65c:	00e5                	addi	ra,ra,25
     65e:	0000                	unimp
     660:	d301                	beqz	a4,560 <$d.3+0x23b>
     662:	02d0                	addi	a2,sp,324
     664:	0000                	unimp
     666:	3f29                	addiw	t5,t5,-22
     668:	0002                	c.slli64	zero
     66a:	5000                	lw	s0,32(s0)
     66c:	01000003          	lb	zero,16(zero) # 10 <$d.8+0x10>
     670:	0002d5d3          	fadd.s	fa1,ft5,ft0,unknown
     674:	2900                	fld	fs0,16(a0)
     676:	0285                	addi	t0,t0,1
     678:	0000                	unimp
     67a:	0288                	addi	a0,sp,320
     67c:	0000                	unimp
     67e:	d301                	beqz	a4,57e <$d.3+0x259>
     680:	000000c7          	fmsub.s	ft1,ft0,ft0,ft0,rne
     684:	0429                	addi	s0,s0,10
     686:	56000003          	lb	zero,1376(zero) # 560 <$d.3+0x23b>
     68a:	01000003          	lb	zero,16(zero) # 10 <$d.8+0x10>
     68e:	0002d5d3          	fadd.s	fa1,ft5,ft0,unknown
     692:	2000                	fld	fs0,0(s0)
     694:	00000383          	lb	t2,0(zero) # 0 <$d.8>
     698:	0000002b          	0x2b
     69c:	d601                	beqz	a2,5a4 <$d.3+0x27f>
     69e:	02d5                	addi	t0,t0,21
     6a0:	0000                	unimp
     6a2:	be20                	fsd	fs0,120(a2)
     6a4:	91000003          	lb	zero,-1776(zero) # fffffffffffff910 <__free_ram_end+0xffffffff7bdbd910>
     6a8:	0000                	unimp
     6aa:	0100                	addi	s0,sp,128
     6ac:	d5d5                	beqz	a1,658 <$d.3+0x333>
     6ae:	0002                	c.slli64	zero
     6b0:	2000                	fld	fs0,0(s0)
     6b2:	03f1                	addi	t2,t2,28
     6b4:	0000                	unimp
     6b6:	0030                	addi	a2,sp,8
     6b8:	0000                	unimp
     6ba:	d401                	beqz	s0,5c2 <$d.3+0x29d>
     6bc:	02d5                	addi	t0,t0,21
     6be:	0000                	unimp
     6c0:	8a20                	0x8a20
     6c2:	0004                	0x4
     6c4:	f400                	sd	s0,40(s0)
     6c6:	0001                	nop
     6c8:	0100                	addi	s0,sp,128
     6ca:	0002d0e3          	bgez	t0,eca <$d.10+0x543>
     6ce:	2000                	fld	fs0,0(s0)
     6d0:	00000523          	sb	zero,10(zero) # a <$d.8+0xa>
     6d4:	03cc                	addi	a1,sp,452
     6d6:	0000                	unimp
     6d8:	ea01                	bnez	a2,6e8 <$d.3+0x3c3>
     6da:	02d0                	addi	a2,sp,324
     6dc:	0000                	unimp
     6de:	0e2a                	slli	t3,t3,0xa
     6e0:	2002                	fld	ft0,0(sp)
     6e2:	0080                	addi	s0,sp,64
     6e4:	0000                	unimp
     6e6:	5a00                	lw	s0,48(a2)
     6e8:	0000                	unimp
     6ea:	2000                	fld	fs0,0(s0)
     6ec:	00000457          	vadd.vv	v8,v0,v0,v0.t
     6f0:	0216                	slli	tp,tp,0x5
     6f2:	0000                	unimp
     6f4:	e001                	bnez	s0,6f4 <$d.3+0x3cf>
     6f6:	000000c7          	fmsub.s	ft1,ft0,ft0,ft0,rne
     6fa:	1f1c                	addi	a5,sp,944
     6fc:	0006                	c.slli	zero,0x1
     6fe:	0e00                	addi	s0,sp,784
     700:	2002                	fld	ft0,0(sp)
     702:	0080                	addi	s0,sp,64
     704:	0000                	unimp
     706:	5000                	lw	s0,32(s0)
     708:	0000                	unimp
     70a:	0100                	addi	s0,sp,128
     70c:	15e0                	addi	s0,sp,748
     70e:	062b012b          	0x62b012b
     712:	0000                	unimp
     714:	240a                	fld	fs0,128(sp)
     716:	0004                	0x4
     718:	3600                	fld	fs0,40(a2)
     71a:	0006                	c.slli	zero,0x1
     71c:	0000                	unimp
     71e:	2a00                	fld	fs0,16(a2)
     720:	0280                	addi	s0,sp,320
     722:	8020                	0x8020
     724:	0000                	unimp
     726:	0000                	unimp
     728:	005a                	c.slli	zero,0x16
     72a:	0000                	unimp
     72c:	f020                	sd	s0,96(s0)
     72e:	0004                	0x4
     730:	2900                	fld	fs0,16(a0)
     732:	01000003          	lb	zero,16(zero) # 10 <$d.8+0x10>
     736:	0000c7e7          	0xc7e7
     73a:	1c00                	addi	s0,sp,560
     73c:	061f 0000 0280      	0x2800000061f
     742:	8020                	0x8020
     744:	0000                	unimp
     746:	0000                	unimp
     748:	0050                	addi	a2,sp,4
     74a:	0000                	unimp
     74c:	e701                	bnez	a4,754 <$d.3+0x42f>
     74e:	2b15                	addiw	s6,s6,5
     750:	2b01                	sext.w	s6,s6
     752:	0006                	c.slli	zero,0x1
     754:	0a00                	addi	s0,sp,272
     756:	04bd                	addi	s1,s1,15
     758:	0000                	unimp
     75a:	0636                	slli	a2,a2,0xd
     75c:	0000                	unimp
     75e:	0000                	unimp
     760:	0005d70b          	0x5d70b
     764:	d000                	sw	s0,32(s0)
     766:	2001                	0x2001
     768:	0080                	addi	s0,sp,64
     76a:	0000                	unimp
     76c:	0b00                	addi	s0,sp,400
     76e:	000005d7          	vadd.vv	v11,v0,v0,v0.t
     772:	01f8                	addi	a4,sp,204
     774:	8020                	0x8020
     776:	0000                	unimp
     778:	0000                	unimp
     77a:	0005d70b          	0x5d70b
     77e:	4600                	lw	s0,8(a2)
     780:	2002                	fld	ft0,0(sp)
     782:	0080                	addi	s0,sp,64
     784:	0000                	unimp
     786:	0b00                	addi	s0,sp,400
     788:	0604                	addi	s1,sp,768
     78a:	0000                	unimp
     78c:	025a                	slli	tp,tp,0x16
     78e:	8020                	0x8020
     790:	0000                	unimp
     792:	0000                	unimp
     794:	0005d70b          	0x5d70b
     798:	b800                	fsd	fs0,48(s0)
     79a:	2002                	fld	ft0,0(sp)
     79c:	0080                	addi	s0,sp,64
     79e:	0000                	unimp
     7a0:	0b00                	addi	s0,sp,400
     7a2:	0604                	addi	s1,sp,768
     7a4:	0000                	unimp
     7a6:	02cc                	addi	a1,sp,324
     7a8:	8020                	0x8020
     7aa:	0000                	unimp
     7ac:	0000                	unimp
     7ae:	2100                	fld	fs0,0(a0)
     7b0:	0302                	c.slli64	t1
     7b2:	8020                	0x8020
     7b4:	0000                	unimp
     7b6:	0000                	unimp
     7b8:	0014                	0x14
     7ba:	0000                	unimp
     7bc:	5201                	li	tp,-32
     7be:	003c                	addi	a5,sp,8
     7c0:	0000                	unimp
     7c2:	f501                	bnez	a0,6ca <$d.3+0x3a5>
     7c4:	162c                	addi	a1,sp,808
     7c6:	00802003          	lw	zero,8(zero) # 8 <$d.8+0x8>
     7ca:	0000                	unimp
     7cc:	2800                	fld	fs0,16(s0)
     7ce:	0002                	c.slli64	zero
     7d0:	0100                	addi	s0,sp,128
     7d2:	e652                	sd	s4,264(sp)
     7d4:	0002                	c.slli64	zero
     7d6:	0100                	addi	s0,sp,128
     7d8:	0289011b          	addiw	sp,s2,40
     7dc:	0000                	unimp
     7de:	562d                	li	a2,-21
     7e0:	0005                	c.nop	1
     7e2:	6b00                	ld	s0,16(a4)
     7e4:	0002                	c.slli64	zero
     7e6:	0100                	addi	s0,sp,128
     7e8:	096c011b          	addiw	sp,s8,150
     7ec:	0000                	unimp
     7ee:	af2d                	j	f28 <$d.10+0x5a1>
     7f0:	0005                	c.nop	1
     7f2:	2d00                	fld	fs0,24(a0)
     7f4:	01000003          	lb	zero,16(zero) # 10 <$d.8+0x10>
     7f8:	02e0011b          	addiw	sp,zero,46
     7fc:	0000                	unimp
     7fe:	082e                	slli	a6,a6,0xb
     800:	0006                	c.slli	zero,0x1
     802:	0e00                	addi	s0,sp,784
     804:	0000                	unimp
     806:	0100                	addi	s0,sp,128
     808:	011e                	slli	sp,sp,0x7
     80a:	023e                	slli	tp,tp,0xf
     80c:	0000                	unimp
     80e:	8d2e                	mv	s10,a1
     810:	f0000007          	vlseg8b.v	v0,(zero),v0.t
     814:	0000                	unimp
     816:	0100                	addi	s0,sp,128
     818:	011d                	addi	sp,sp,7
     81a:	0289                	addi	t0,t0,2
     81c:	0000                	unimp
     81e:	d42e                	sw	a1,40(sp)
     820:	04000007          	0x4000007
     824:	0002                	c.slli64	zero
     826:	0100                	addi	s0,sp,128
     828:	02d0012b          	0x2d0012b
     82c:	0000                	unimp
     82e:	d72e                	sw	a1,172(sp)
     830:	0008                	0x8
     832:	3900                	fld	fs0,48(a0)
     834:	0002                	c.slli64	zero
     836:	0100                	addi	s0,sp,128
     838:	02d0013b          	mulw	sp,zero,a3
     83c:	0000                	unimp
     83e:	00061f2f          	0x61f2f
     842:	0000                	unimp
     844:	0000                	unimp
     846:	0100                	addi	s0,sp,128
     848:	0929013b          	0x929013b
     84c:	000008a3          	sb	zero,17(zero) # 11 <$d.8+0x11>
     850:	0000062b          	0x62b
     854:	700a                	0x700a
     856:	0008                	0x8
     858:	3600                	fld	fs0,40(a2)
     85a:	0006                	c.slli	zero,0x1
     85c:	0000                	unimp
     85e:	5c2a                	lw	s8,168(sp)
     860:	2004                	fld	fs1,0(s0)
     862:	0080                	addi	s0,sp,64
     864:	0000                	unimp
     866:	2200                	fld	fs0,0(a2)
     868:	0000                	unimp
     86a:	2e00                	fld	fs0,24(a2)
     86c:	091d                	addi	s2,s2,7
     86e:	0000                	unimp
     870:	0288                	addi	a0,sp,320
     872:	0000                	unimp
     874:	3d01                	addiw	s10,s10,-32
     876:	c701                	beqz	a4,87e <$d.3+0x559>
     878:	0000                	unimp
     87a:	0000                	unimp
     87c:	3030                	fld	fa2,96(s0)
     87e:	0000                	unimp
     880:	2e00                	fld	fs0,24(a2)
     882:	0950                	addi	a2,sp,148
     884:	0000                	unimp
     886:	000001b7          	lui	gp,0x0
     88a:	4201                	li	tp,0
     88c:	d501                	beqz	a0,794 <$d.3+0x46f>
     88e:	0002                	c.slli64	zero
     890:	3000                	fld	fs0,32(s0)
     892:	0060                	addi	s0,sp,12
     894:	0000                	unimp
     896:	aa2e                	fsd	fa1,272(sp)
     898:	0009                	c.nop	2
     89a:	1d00                	addi	s0,sp,688
     89c:	0001                	nop
     89e:	0100                	addi	s0,sp,128
     8a0:	00c70143          	fmadd.s	ft2,fa4,fa2,ft0,rne
     8a4:	0000                	unimp
     8a6:	f02e                	sd	a1,32(sp)
     8a8:	0009                	c.nop	2
     8aa:	5800                	lw	s0,48(s0)
     8ac:	0002                	c.slli64	zero
     8ae:	0100                	addi	s0,sp,128
     8b0:	02e00147          	fmsub.d	ft2,ft0,fa4,ft0,rne
     8b4:	0000                	unimp
     8b6:	402e                	0x402e
     8b8:	000a                	c.slli	zero,0x2
     8ba:	5000                	lw	s0,32(s0)
     8bc:	0000                	unimp
     8be:	0100                	addi	s0,sp,128
     8c0:	0148                	addi	a0,sp,132
     8c2:	02e0                	addi	s0,sp,332
     8c4:	0000                	unimp
     8c6:	00061f2f          	0x61f2f
     8ca:	a000                	fsd	fs0,0(s0)
     8cc:	0000                	unimp
     8ce:	0100                	addi	s0,sp,128
     8d0:	09160143          	fmadd.s	ft2,fa2,fa7,ft1,rne
     8d4:	00000a73          	0xa73
     8d8:	0000062b          	0x62b
     8dc:	bb0a                	fsd	ft2,432(sp)
     8de:	000a                	c.slli	zero,0x2
     8e0:	3600                	fld	fs0,40(a2)
     8e2:	0006                	c.slli	zero,0x1
     8e4:	0000                	unimp
     8e6:	0000                	unimp
     8e8:	0005d70b          	0x5d70b
     8ec:	9c00                	0x9c00
     8ee:	00802003          	lw	zero,8(zero) # 8 <$d.8+0x8>
     8f2:	0000                	unimp
     8f4:	0b00                	addi	s0,sp,400
     8f6:	000005d7          	vadd.vv	v11,v0,v0,v0.t
     8fa:	0446                	slli	s0,s0,0x11
     8fc:	8020                	0x8020
     8fe:	0000                	unimp
     900:	0000                	unimp
     902:	0006040b          	0x6040b
     906:	5c00                	lw	s0,56(s0)
     908:	2004                	fld	fs1,0(s0)
     90a:	0080                	addi	s0,sp,64
     90c:	0000                	unimp
     90e:	0b00                	addi	s0,sp,400
     910:	0642                	slli	a2,a2,0x10
     912:	0000                	unimp
     914:	0478                	addi	a4,sp,524
     916:	8020                	0x8020
     918:	0000                	unimp
     91a:	0000                	unimp
     91c:	0009510b          	0x9510b
     920:	9e00                	0x9e00
     922:	2004                	fld	fs1,0(s0)
     924:	0080                	addi	s0,sp,64
     926:	0000                	unimp
     928:	0b00                	addi	s0,sp,400
     92a:	0642                	slli	a2,a2,0x10
     92c:	0000                	unimp
     92e:	04b0                	addi	a2,sp,584
     930:	8020                	0x8020
     932:	0000                	unimp
     934:	0000                	unimp
     936:	0006040b          	0x6040b
     93a:	dc00                	sw	s0,56(s0)
     93c:	2004                	fld	fs1,0(s0)
     93e:	0080                	addi	s0,sp,64
     940:	0000                	unimp
     942:	0b00                	addi	s0,sp,400
     944:	000005d7          	vadd.vv	v11,v0,v0,v0.t
     948:	053c                	addi	a5,sp,648
     94a:	8020                	0x8020
     94c:	0000                	unimp
     94e:	0000                	unimp
     950:	2700                	fld	fs0,8(a4)
     952:	00c8                	addi	a0,sp,68
     954:	0000                	unimp
     956:	2002                	fld	ft0,0(sp)
     958:	000002cf          	fnmadd.s	ft5,ft0,ft0,ft0,rne
     95c:	cf24                	sw	s1,88(a4)
     95e:	0002                	c.slli64	zero
     960:	2400                	fld	fs0,8(s0)
     962:	096c                	addi	a1,sp,156
     964:	0000                	unimp
     966:	e024                	sd	s1,64(s0)
     968:	0002                	c.slli64	zero
     96a:	0000                	unimp
     96c:	7111                	addi	sp,sp,-256
     96e:	0009                	c.nop	2
     970:	3100                	fld	fs0,32(a0)
     972:	3e32                	fld	ft8,296(sp)
     974:	2005                	0x2005
     976:	0080                	addi	s0,sp,64
     978:	0000                	unimp
     97a:	ba00                	fsd	fs0,48(a2)
     97c:	0001                	nop
     97e:	0100                	addi	s0,sp,128
     980:	4a52                	lw	s4,20(sp)
     982:	01000003          	lb	zero,16(zero) # 10 <$d.8+0x10>
     986:	0158                	addi	a4,sp,132
     988:	962e                	add	a2,a2,a1
     98a:	000c                	0xc
     98c:	f500                	sd	s0,40(a0)
     98e:	0002                	c.slli64	zero
     990:	0100                	addi	s0,sp,128
     992:	015a                	slli	sp,sp,0x16
     994:	0289                	addi	t0,t0,2
     996:	0000                	unimp
     998:	dc2e                	sw	a1,56(sp)
     99a:	000c                	0xc
     99c:	1a00                	addi	s0,sp,304
     99e:	0002                	c.slli64	zero
     9a0:	0100                	addi	s0,sp,128
     9a2:	0172                	slli	sp,sp,0x1c
     9a4:	0289                	addi	t0,t0,2
     9a6:	0000                	unimp
     9a8:	d030                	sw	a2,96(s0)
     9aa:	0000                	unimp
     9ac:	2e00                	fld	fs0,24(a2)
     9ae:	0bb9                	addi	s7,s7,14
     9b0:	0000                	unimp
     9b2:	000e                	c.slli	zero,0x3
     9b4:	0000                	unimp
     9b6:	5b01                	li	s6,-32
     9b8:	3e01                	addiw	t3,t3,-32
     9ba:	0002                	c.slli64	zero
     9bc:	3000                	fld	fs0,32(s0)
     9be:	0100                	addi	s0,sp,128
     9c0:	0000                	unimp
     9c2:	012e                	slli	sp,sp,0xb
     9c4:	f000000b          	0xf000000b
     9c8:	0000                	unimp
     9ca:	0100                	addi	s0,sp,128
     9cc:	015c                	addi	a5,sp,132
     9ce:	0289                	addi	t0,t0,2
     9d0:	0000                	unimp
     9d2:	0000                	unimp
     9d4:	0005ef33          	or	t5,a1,zero
     9d8:	f600                	sd	s0,40(a2)
     9da:	2006                	fld	ft0,64(sp)
     9dc:	0080                	addi	s0,sp,64
     9de:	0000                	unimp
     9e0:	0000                	unimp
     9e2:	2006f807          	vlseg2e.v	v16,(a3),v0.t
     9e6:	0080                	addi	s0,sp,64
     9e8:	0000                	unimp
     9ea:	1000                	addi	s0,sp,32
     9ec:	0000                	unimp
     9ee:	0100                	addi	s0,sp,128
     9f0:	2152                	fld	ft2,272(sp)
     9f2:	000a                	c.slli	zero,0x2
     9f4:	2a00                	fld	fs0,16(a2)
     9f6:	0700                	addi	s0,sp,896
     9f8:	8020                	0x8020
     9fa:	0000                	unimp
     9fc:	0000                	unimp
     9fe:	0006                	c.slli	zero,0x1
     a00:	0000                	unimp
     a02:	0f0a                	slli	t5,t5,0x2
     a04:	000d                	c.nop	3
     a06:	2b00                	fld	fs0,16(a4)
     a08:	000a                	c.slli	zero,0x2
     a0a:	0000                	unimp
     a0c:	3400                	fld	fs0,40(s0)
     a0e:	03df 0000 2e01      	0x2e01000003df
     a14:	1901                	addi	s2,s2,-32
     a16:	000003e7          	jalr	t2,zero # 0 <$d.8>
     a1a:	2e01                	sext.w	t3,t3
     a1c:	00000047          	fmsub.s	ft0,ft0,ft0,ft0,rne
     a20:	3500                	fld	fs0,40(a0)
     a22:	0000022b          	0x22b
     a26:	7701                	lui	a4,0xfffe0
     a28:	0101                	addi	sp,sp,0
     a2a:	3736                	fld	fa4,360(sp)
     a2c:	000e                	c.slli	zero,0x3
     a2e:	0000                	unimp
     a30:	7801                	lui	a6,0xfffe0
     a32:	3e01                	addiw	t3,t3,-32
     a34:	0002                	c.slli64	zero
     a36:	0000                	unimp
     a38:	3200                	fld	fs0,32(a2)
     a3a:	0708                	addi	a0,sp,896
     a3c:	8020                	0x8020
     a3e:	0000                	unimp
     a40:	0000                	unimp
     a42:	0046                	c.slli	zero,0x11
     a44:	0000                	unimp
     a46:	5201                	li	tp,-32
     a48:	000001d3          	fadd.s	ft3,ft0,ft0,rne
     a4c:	7f01                	lui	t5,0xfffe0
     a4e:	3801                	addiw	a6,a6,-32
     a50:	0a0d                	addi	s4,s4,3
     a52:	0000                	unimp
     a54:	0726                	slli	a4,a4,0x9
     a56:	8020                	0x8020
     a58:	0000                	unimp
     a5a:	0000                	unimp
     a5c:	0016                	c.slli	zero,0x5
     a5e:	0000                	unimp
     a60:	8201                	c.srli64	a2
     a62:	0901                	addi	s2,s2,0
     a64:	0a15412b          	0xa15412b
     a68:	0000                	unimp
     a6a:	7f1c                	ld	a5,56(a4)
     a6c:	26000003          	lb	zero,608(zero) # 260 <$d.9+0x30>
     a70:	00802007          	flw	ft0,8(zero) # 8 <$d.8+0x8>
     a74:	0000                	unimp
     a76:	1600                	addi	s0,sp,800
     a78:	0000                	unimp
     a7a:	0100                	addi	s0,sp,128
     a7c:	c11d032f          	0xc11d032f
     a80:	8b00                	0x8b00
     a82:	1d000003          	lb	zero,464(zero) # 1d0 <$d.5+0x40>
     a86:	9600                	0x9600
     a88:	1d000003          	lb	zero,464(zero) # 1d0 <$d.5+0x40>
     a8c:	a100                	fsd	fs0,0(a0)
     a8e:	1d000003          	lb	zero,464(zero) # 1d0 <$d.5+0x40>
     a92:	ac00                	fsd	fs0,24(s0)
     a94:	1d000003          	lb	zero,464(zero) # 1d0 <$d.5+0x40>
     a98:	b700                	fsd	fs0,40(a4)
     a9a:	1d000003          	lb	zero,464(zero) # 1d0 <$d.5+0x40>
     a9e:	c200                	sw	s0,0(a2)
     aa0:	1d000003          	lb	zero,464(zero) # 1d0 <$d.5+0x40>
     aa4:	cd00                	sw	s0,24(a0)
     aa6:	1d000003          	lb	zero,464(zero) # 1d0 <$d.5+0x40>
     aaa:	d801                	beqz	s0,9ba <$d.10+0x33>
     aac:	0a000003          	lb	zero,160(zero) # a0 <$d.8+0xa0>
     ab0:	0d6e                	slli	s10,s10,0x1b
     ab2:	0000                	unimp
     ab4:	0430                	addi	a2,sp,520
     ab6:	0000                	unimp
     ab8:	a40a                	fsd	ft2,8(sp)
     aba:	000d                	c.nop	3
     abc:	e300                	sd	s0,0(a4)
     abe:	1e000003          	lb	zero,480(zero) # 1e0 <$d.5+0x50>
     ac2:	ee00                	sd	s0,24(a2)
     ac4:	1e000003          	lb	zero,480(zero) # 1e0 <$d.5+0x50>
     ac8:	f900                	sd	s0,48(a0)
     aca:	1e000003          	lb	zero,480(zero) # 1e0 <$d.5+0x50>
     ace:	0400                	addi	s0,sp,512
     ad0:	0004                	0x4
     ad2:	1e00                	addi	s0,sp,816
     ad4:	0f00                	addi	s0,sp,912
     ad6:	0004                	0x4
     ad8:	1e00                	addi	s0,sp,816
     ada:	1a00                	addi	s0,sp,304
     adc:	0004                	0x4
     ade:	1e00                	addi	s0,sp,816
     ae0:	2501                	sext.w	a0,a0
     ae2:	0004                	0x4
     ae4:	0000                	unimp
     ae6:	3800                	fld	fs0,48(s0)
     ae8:	0a21                	addi	s4,s4,8
     aea:	0000                	unimp
     aec:	0746                	slli	a4,a4,0x11
     aee:	8020                	0x8020
     af0:	0000                	unimp
     af2:	0000                	unimp
     af4:	0008                	0x8
     af6:	0000                	unimp
     af8:	8401                	c.srai64	s0
     afa:	0901                	addi	s2,s2,0
     afc:	462a                	lw	a2,136(sp)
     afe:	00802007          	flw	ft0,8(zero) # 8 <$d.8+0x8>
     b02:	0000                	unimp
     b04:	0800                	addi	s0,sp,16
     b06:	0000                	unimp
     b08:	0a00                	addi	s0,sp,272
     b0a:	0dd9                	addi	s11,s11,22
     b0c:	0000                	unimp
     b0e:	00000a2b          	0xa2b
     b12:	0000                	unimp
     b14:	0005d70b          	0x5d70b
     b18:	1e00                	addi	s0,sp,816
     b1a:	00802007          	flw	ft0,8(zero) # 8 <$d.8+0x8>
     b1e:	0000                	unimp
     b20:	0b00                	addi	s0,sp,400
     b22:	0972                	slli	s2,s2,0x1c
     b24:	0000                	unimp
     b26:	0744                	addi	s1,sp,900
     b28:	8020                	0x8020
     b2a:	0000                	unimp
     b2c:	0000                	unimp
     b2e:	3200                	fld	fs0,32(a2)
     b30:	074e                	slli	a4,a4,0x13
     b32:	8020                	0x8020
     b34:	0000                	unimp
     b36:	0000                	unimp
     b38:	0046                	c.slli	zero,0x11
     b3a:	0000                	unimp
     b3c:	5201                	li	tp,-32
     b3e:	01aa                	slli	gp,gp,0xa
     b40:	0000                	unimp
     b42:	8801                	andi	s0,s0,0
     b44:	3801                	addiw	a6,a6,-32
     b46:	0a0d                	addi	s4,s4,3
     b48:	0000                	unimp
     b4a:	076c                	addi	a1,sp,908
     b4c:	8020                	0x8020
     b4e:	0000                	unimp
     b50:	0000                	unimp
     b52:	0016                	c.slli	zero,0x5
     b54:	0000                	unimp
     b56:	8b01                	andi	a4,a4,0
     b58:	0901                	addi	s2,s2,0
     b5a:	0a15422b          	0xa15422b
     b5e:	0000                	unimp
     b60:	7f1c                	ld	a5,56(a4)
     b62:	6c000003          	lb	zero,1728(zero) # 6c0 <$d.3+0x39b>
     b66:	00802007          	flw	ft0,8(zero) # 8 <$d.8+0x8>
     b6a:	0000                	unimp
     b6c:	1600                	addi	s0,sp,800
     b6e:	0000                	unimp
     b70:	0100                	addi	s0,sp,128
     b72:	c21d032f          	0xc21d032f
     b76:	8b00                	0x8b00
     b78:	1d000003          	lb	zero,464(zero) # 1d0 <$d.5+0x40>
     b7c:	9600                	0x9600
     b7e:	1d000003          	lb	zero,464(zero) # 1d0 <$d.5+0x40>
     b82:	a100                	fsd	fs0,0(a0)
     b84:	1d000003          	lb	zero,464(zero) # 1d0 <$d.5+0x40>
     b88:	ac00                	fsd	fs0,24(s0)
     b8a:	1d000003          	lb	zero,464(zero) # 1d0 <$d.5+0x40>
     b8e:	b700                	fsd	fs0,40(a4)
     b90:	1d000003          	lb	zero,464(zero) # 1d0 <$d.5+0x40>
     b94:	c200                	sw	s0,0(a2)
     b96:	1d000003          	lb	zero,464(zero) # 1d0 <$d.5+0x40>
     b9a:	cd00                	sw	s0,24(a0)
     b9c:	1d000003          	lb	zero,464(zero) # 1d0 <$d.5+0x40>
     ba0:	d801                	beqz	s0,ab0 <$d.10+0x129>
     ba2:	0a000003          	lb	zero,160(zero) # a0 <$d.8+0xa0>
     ba6:	0e38                	addi	a4,sp,792
     ba8:	0000                	unimp
     baa:	0430                	addi	a2,sp,520
     bac:	0000                	unimp
     bae:	6e0a                	ld	t3,128(sp)
     bb0:	000e                	c.slli	zero,0x3
     bb2:	e300                	sd	s0,0(a4)
     bb4:	1e000003          	lb	zero,480(zero) # 1e0 <$d.5+0x50>
     bb8:	ee00                	sd	s0,24(a2)
     bba:	1e000003          	lb	zero,480(zero) # 1e0 <$d.5+0x50>
     bbe:	f900                	sd	s0,48(a0)
     bc0:	1e000003          	lb	zero,480(zero) # 1e0 <$d.5+0x50>
     bc4:	0400                	addi	s0,sp,512
     bc6:	0004                	0x4
     bc8:	1e00                	addi	s0,sp,816
     bca:	0f00                	addi	s0,sp,912
     bcc:	0004                	0x4
     bce:	1e00                	addi	s0,sp,816
     bd0:	1a00                	addi	s0,sp,304
     bd2:	0004                	0x4
     bd4:	1e00                	addi	s0,sp,816
     bd6:	2501                	sext.w	a0,a0
     bd8:	0004                	0x4
     bda:	0000                	unimp
     bdc:	3800                	fld	fs0,48(s0)
     bde:	0a21                	addi	s4,s4,8
     be0:	0000                	unimp
     be2:	078c                	addi	a1,sp,960
     be4:	8020                	0x8020
     be6:	0000                	unimp
     be8:	0000                	unimp
     bea:	0008                	0x8
     bec:	0000                	unimp
     bee:	8d01                	sub	a0,a0,s0
     bf0:	0901                	addi	s2,s2,0
     bf2:	8c2a                	mv	s8,a0
     bf4:	00802007          	flw	ft0,8(zero) # 8 <$d.8+0x8>
     bf8:	0000                	unimp
     bfa:	0800                	addi	s0,sp,16
     bfc:	0000                	unimp
     bfe:	0a00                	addi	s0,sp,272
     c00:	00000ea3          	sb	zero,29(zero) # 1d <$d.8+0x1d>
     c04:	00000a2b          	0xa2b
     c08:	0000                	unimp
     c0a:	0005d70b          	0x5d70b
     c0e:	6400                	ld	s0,8(s0)
     c10:	00802007          	flw	ft0,8(zero) # 8 <$d.8+0x8>
     c14:	0000                	unimp
     c16:	0b00                	addi	s0,sp,400
     c18:	0972                	slli	s2,s2,0x1c
     c1a:	0000                	unimp
     c1c:	078a                	slli	a5,a5,0x2
     c1e:	8020                	0x8020
     c20:	0000                	unimp
     c22:	0000                	unimp
     c24:	0700                	addi	s0,sp,896
     c26:	0794                	addi	a3,sp,960
     c28:	8020                	0x8020
     c2a:	0000                	unimp
     c2c:	0000                	unimp
     c2e:	0082                	c.slli64	ra
     c30:	0000                	unimp
     c32:	5201                	li	tp,-32
     c34:	0ce6                	slli	s9,s9,0x19
     c36:	0000                	unimp
     c38:	0209                	addi	tp,tp,2
     c3a:	ef00000f          	0xef00000f
     c3e:	000c                	0xc
     c40:	3800                	fld	fs0,48(s0)
     c42:	0a0d                	addi	s4,s4,3
     c44:	0000                	unimp
     c46:	07dc                	addi	a5,sp,964
     c48:	8020                	0x8020
     c4a:	0000                	unimp
     c4c:	0000                	unimp
     c4e:	0012                	c.slli	zero,0x4
     c50:	0000                	unimp
     c52:	9501                	srai	a0,a0,0x20
     c54:	0901                	addi	s2,s2,0
     c56:	0116                	slli	sp,sp,0x5
     c58:	155a                	slli	a0,a0,0x36
     c5a:	000a                	c.slli	zero,0x2
     c5c:	1c00                	addi	s0,sp,560
     c5e:	037f                	0x37f
     c60:	0000                	unimp
     c62:	07dc                	addi	a5,sp,964
     c64:	8020                	0x8020
     c66:	0000                	unimp
     c68:	0000                	unimp
     c6a:	0012                	c.slli	zero,0x4
     c6c:	0000                	unimp
     c6e:	2f01                	sext.w	t5,t5
     c70:	5a011603          	lh	a2,1440(sp) # 305a0a92 <_binary_shell_bin_size+0x30590772>
     c74:	0000038b          	0x38b
     c78:	001d                	c.nop	7
     c7a:	0396                	slli	t2,t2,0x5
     c7c:	0000                	unimp
     c7e:	001d                	c.nop	7
     c80:	03a1                	addi	t2,t2,8
     c82:	0000                	unimp
     c84:	001d                	c.nop	7
     c86:	03ac                	addi	a1,sp,456
     c88:	0000                	unimp
     c8a:	001d                	c.nop	7
     c8c:	000003b7          	lui	t2,0x0
     c90:	001d                	c.nop	7
     c92:	03c2                	slli	t2,t2,0x10
     c94:	0000                	unimp
     c96:	001d                	c.nop	7
     c98:	03cd                	addi	t2,t2,19
     c9a:	0000                	unimp
     c9c:	011d                	addi	sp,sp,7
     c9e:	03d8                	addi	a4,sp,452
     ca0:	0000                	unimp
     ca2:	305a0117          	auipc	sp,0x305a0
     ca6:	0004                	0x4
     ca8:	1e00                	addi	s0,sp,816
     caa:	2501                	sext.w	a0,a0
     cac:	0004                	0x4
     cae:	1e00                	addi	s0,sp,816
     cb0:	1a00                	addi	s0,sp,304
     cb2:	0004                	0x4
     cb4:	1e00                	addi	s0,sp,816
     cb6:	0f00                	addi	s0,sp,912
     cb8:	0004                	0x4
     cba:	1e00                	addi	s0,sp,816
     cbc:	0400                	addi	s0,sp,512
     cbe:	0004                	0x4
     cc0:	1e00                	addi	s0,sp,816
     cc2:	f900                	sd	s0,48(a0)
     cc4:	1e000003          	lb	zero,480(zero) # 1e0 <$d.5+0x50>
     cc8:	ee00                	sd	s0,24(a2)
     cca:	0a000003          	lb	zero,160(zero) # a0 <$d.8+0xa0>
     cce:	0f48                	addi	a0,sp,916
     cd0:	0000                	unimp
     cd2:	000003e3          	beqz	zero,14d8 <$d.2+0x34f>
     cd6:	0000                	unimp
     cd8:	0005d70b          	0x5d70b
     cdc:	1000                	addi	s0,sp,32
     cde:	2008                	fld	fa0,0(s0)
     ce0:	0080                	addi	s0,sp,64
     ce2:	0000                	unimp
     ce4:	0000                	unimp
     ce6:	8e35                	xor	a2,a2,a3
     ce8:	0002                	c.slli64	zero
     cea:	0100                	addi	s0,sp,128
     cec:	0192                	slli	gp,gp,0x4
     cee:	3901                	addiw	s2,s2,-32
     cf0:	0231                	addi	tp,tp,12
     cf2:	0000                	unimp
     cf4:	9201                	srli	a2,a2,0x20
     cf6:	fc01                	bnez	s0,c0e <$d.10+0x287>
     cf8:	000c                	0xc
     cfa:	0000                	unimp
     cfc:	0111                	addi	sp,sp,4
     cfe:	000d                	c.nop	3
     d00:	1b00                	addi	s0,sp,432
     d02:	0014                	0x14
     d04:	0000                	unimp
     d06:	03f8                	addi	a4,sp,460
     d08:	102d                	c.nop	-21
     d0a:	03c6                	slli	t2,t2,0x11
     d0c:	0000                	unimp
     d0e:	00d2                	slli	ra,ra,0x14
     d10:	0000                	unimp
     d12:	10002e03          	lw	t3,256(zero) # 100 <$d.8+0x100>
     d16:	004a                	c.slli	zero,0x12
     d18:	0000                	unimp
     d1a:	00d2                	slli	ra,ra,0x14
     d1c:	0000                	unimp
     d1e:	10082f03          	lw	t5,256(a6) # fffffffffffe0100 <__free_ram_end+0xffffffff7bd9e100>
     d22:	03ea                	slli	t2,t2,0x1a
     d24:	0000                	unimp
     d26:	00d2                	slli	ra,ra,0x14
     d28:	0000                	unimp
     d2a:	10103003          	ld	zero,257(zero) # 101 <$d.8+0x101>
     d2e:	00000233          	add	tp,zero,zero
     d32:	00d2                	slli	ra,ra,0x14
     d34:	0000                	unimp
     d36:	10183103          	ld	sp,257(a6)
     d3a:	0326                	slli	t1,t1,0x9
     d3c:	0000                	unimp
     d3e:	00d2                	slli	ra,ra,0x14
     d40:	0000                	unimp
     d42:	10203203          	ld	tp,258(zero) # 102 <$d.8+0x102>
     d46:	00d9                	addi	ra,ra,22
     d48:	0000                	unimp
     d4a:	00d2                	slli	ra,ra,0x14
     d4c:	0000                	unimp
     d4e:	10283303          	ld	t1,258(a6)
     d52:	0236                	slli	tp,tp,0xd
     d54:	0000                	unimp
     d56:	00d2                	slli	ra,ra,0x14
     d58:	0000                	unimp
     d5a:	10303403          	ld	s0,259(zero) # 103 <$d.8+0x103>
     d5e:	00000347          	fmsub.s	ft6,ft0,ft0,ft0,rne
     d62:	00d2                	slli	ra,ra,0x14
     d64:	0000                	unimp
     d66:	10383503          	ld	a0,259(a6)
     d6a:	000001bb          	addw	gp,zero,zero
     d6e:	00d2                	slli	ra,ra,0x14
     d70:	0000                	unimp
     d72:	10403603          	ld	a2,260(zero) # 104 <$d.8+0x104>
     d76:	00000207          	vlbu.v	v4,(zero),v0.t
     d7a:	00d2                	slli	ra,ra,0x14
     d7c:	0000                	unimp
     d7e:	10483703          	ld	a4,260(a6)
     d82:	024e                	slli	tp,tp,0x13
     d84:	0000                	unimp
     d86:	00d2                	slli	ra,ra,0x14
     d88:	0000                	unimp
     d8a:	10503803          	ld	a6,261(zero) # 105 <$d.8+0x105>
     d8e:	00000323          	sb	zero,6(zero) # 6 <$d.8+0x6>
     d92:	00d2                	slli	ra,ra,0x14
     d94:	0000                	unimp
     d96:	10583903          	ld	s2,261(a6)
     d9a:	0096                	slli	ra,ra,0x5
     d9c:	0000                	unimp
     d9e:	00d2                	slli	ra,ra,0x14
     da0:	0000                	unimp
     da2:	10603a03          	ld	s4,262(zero) # 106 <$d.8+0x106>
     da6:	00000047          	fmsub.s	ft0,ft0,ft0,ft0,rne
     daa:	00d2                	slli	ra,ra,0x14
     dac:	0000                	unimp
     dae:	10683b03          	ld	s6,262(a6)
     db2:	0285                	addi	t0,t0,1
     db4:	0000                	unimp
     db6:	00d2                	slli	ra,ra,0x14
     db8:	0000                	unimp
     dba:	10703c03          	ld	s8,263(zero) # 107 <$d.8+0x107>
     dbe:	0039                	c.nop	14
     dc0:	0000                	unimp
     dc2:	00d2                	slli	ra,ra,0x14
     dc4:	0000                	unimp
     dc6:	10783d03          	ld	s10,263(a6)
     dca:	01d0                	addi	a2,sp,196
     dcc:	0000                	unimp
     dce:	00d2                	slli	ra,ra,0x14
     dd0:	0000                	unimp
     dd2:	10803e03          	ld	t3,264(zero) # 108 <$d.8+0x108>
     dd6:	008e                	slli	ra,ra,0x3
     dd8:	0000                	unimp
     dda:	00d2                	slli	ra,ra,0x14
     ddc:	0000                	unimp
     dde:	10883f03          	ld	t5,264(a6)
     de2:	0198                	addi	a4,sp,192
     de4:	0000                	unimp
     de6:	00d2                	slli	ra,ra,0x14
     de8:	0000                	unimp
     dea:	10904003          	lbu	zero,265(zero) # 109 <$d.8+0x109>
     dee:	000000cf          	fnmadd.s	ft1,ft0,ft0,ft0,rne
     df2:	00d2                	slli	ra,ra,0x14
     df4:	0000                	unimp
     df6:	10984103          	lbu	sp,265(a6)
     dfa:	029d                	addi	t0,t0,7
     dfc:	0000                	unimp
     dfe:	00d2                	slli	ra,ra,0x14
     e00:	0000                	unimp
     e02:	10a04203          	lbu	tp,266(zero) # 10a <$d.8+0x10a>
     e06:	004d                	c.nop	19
     e08:	0000                	unimp
     e0a:	00d2                	slli	ra,ra,0x14
     e0c:	0000                	unimp
     e0e:	10a84303          	lbu	t1,266(a6)
     e12:	0069                	c.nop	26
     e14:	0000                	unimp
     e16:	00d2                	slli	ra,ra,0x14
     e18:	0000                	unimp
     e1a:	10b04403          	lbu	s0,267(zero) # 10b <$d.8+0x10b>
     e1e:	006c                	addi	a1,sp,12
     e20:	0000                	unimp
     e22:	00d2                	slli	ra,ra,0x14
     e24:	0000                	unimp
     e26:	10b84503          	lbu	a0,267(a6)
     e2a:	039e                	slli	t2,t2,0x7
     e2c:	0000                	unimp
     e2e:	00d2                	slli	ra,ra,0x14
     e30:	0000                	unimp
     e32:	10c04603          	lbu	a2,268(zero) # 10c <$d.8+0x10c>
     e36:	00000377          	0x377
     e3a:	00d2                	slli	ra,ra,0x14
     e3c:	0000                	unimp
     e3e:	10c84703          	lbu	a4,268(a6)
     e42:	000001fb          	0x1fb
     e46:	00d2                	slli	ra,ra,0x14
     e48:	0000                	unimp
     e4a:	10d04803          	lbu	a6,269(zero) # 10d <$d.8+0x10d>
     e4e:	03c9                	addi	t2,t2,18
     e50:	0000                	unimp
     e52:	00d2                	slli	ra,ra,0x14
     e54:	0000                	unimp
     e56:	10d84903          	lbu	s2,269(a6)
     e5a:	00dc                	addi	a5,sp,68
     e5c:	0000                	unimp
     e5e:	00d2                	slli	ra,ra,0x14
     e60:	0000                	unimp
     e62:	10e04a03          	lbu	s4,270(zero) # 10e <$d.8+0x10e>
     e66:	0010                	0x10
     e68:	0000                	unimp
     e6a:	00d2                	slli	ra,ra,0x14
     e6c:	0000                	unimp
     e6e:	10e84b03          	lbu	s6,270(a6)
     e72:	0204                	addi	s1,sp,256
     e74:	0000                	unimp
     e76:	00d2                	slli	ra,ra,0x14
     e78:	0000                	unimp
     e7a:	00f04c03          	lbu	s8,15(zero) # f <$d.8+0xf>
     e7e:	1632                	slli	a2,a2,0x2c
     e80:	2008                	fld	fa0,0(s0)
     e82:	0080                	addi	s0,sp,64
     e84:	0000                	unimp
     e86:	ba00                	fsd	fs0,48(a2)
     e88:	0000                	unimp
     e8a:	0100                	addi	s0,sp,128
     e8c:	0a52                	slli	s4,s4,0x14
     e8e:	0002                	c.slli64	zero
     e90:	0100                	addi	s0,sp,128
     e92:	7d2d01a7          	0x7d2d01a7
     e96:	3100000f          	0x3100000f
     e9a:	0002                	c.slli64	zero
     e9c:	0100                	addi	s0,sp,128
     e9e:	0cfc01a7          	vsxb.v	v3,(s8),v15,v0.t
     ea2:	0000                	unimp
     ea4:	d62e                	sw	a1,44(sp)
     ea6:	5c00000f          	0x5c00000f
     eaa:	01000003          	lb	zero,16(zero) # 10 <$d.8+0x10>
     eae:	01a8                	addi	a0,sp,200
     eb0:	02d5                	addi	t0,t0,21
     eb2:	0000                	unimp
     eb4:	1c2e                	slli	s8,s8,0x2b
     eb6:	0010                	0x10
     eb8:	fe00                	sd	s0,56(a2)
     eba:	0001                	nop
     ebc:	0100                	addi	s0,sp,128
     ebe:	01a9                	addi	gp,gp,10
     ec0:	02d5                	addi	t0,t0,21
     ec2:	0000                	unimp
     ec4:	952e                	add	a0,a0,a1
     ec6:	0010                	0x10
     ec8:	fa00                	sd	s0,48(a2)
     eca:	0002                	c.slli64	zero
     ecc:	0100                	addi	s0,sp,128
     ece:	01aa                	slli	gp,gp,0xa
     ed0:	02d5                	addi	t0,t0,21
     ed2:	0000                	unimp
     ed4:	1a2a                	slli	s4,s4,0x2a
     ed6:	2008                	fld	fa0,0(s0)
     ed8:	0080                	addi	s0,sp,64
     eda:	0000                	unimp
     edc:	0400                	addi	s0,sp,512
     ede:	0000                	unimp
     ee0:	3700                	fld	fs0,40(a4)
     ee2:	03ed                	addi	t2,t2,27
     ee4:	0000                	unimp
     ee6:	a801                	j	ef6 <$d.10+0x56f>
     ee8:	dd01                	beqz	a0,e00 <$d.10+0x479>
     eea:	0000                	unimp
     eec:	0000                	unimp
     eee:	1e2a                	slli	t3,t3,0x2a
     ef0:	2008                	fld	fa0,0(s0)
     ef2:	0080                	addi	s0,sp,64
     ef4:	0000                	unimp
     ef6:	0600                	addi	s0,sp,768
     ef8:	0000                	unimp
     efa:	2e00                	fld	fs0,24(a2)
     efc:	1062                	c.slli	zero,0x38
     efe:	0000                	unimp
     f00:	03ed                	addi	t2,t2,27
     f02:	0000                	unimp
     f04:	a901                	j	1314 <$d.2+0x18b>
     f06:	dd01                	beqz	a0,e1e <$d.10+0x497>
     f08:	0000                	unimp
     f0a:	0000                	unimp
     f0c:	242a                	fld	fs0,136(sp)
     f0e:	2008                	fld	fa0,0(s0)
     f10:	0080                	addi	s0,sp,64
     f12:	0000                	unimp
     f14:	0400                	addi	s0,sp,512
     f16:	0000                	unimp
     f18:	3700                	fld	fs0,40(a4)
     f1a:	03ed                	addi	t2,t2,27
     f1c:	0000                	unimp
     f1e:	aa01                	j	102e <$d.10+0x6a7>
     f20:	dd01                	beqz	a0,e38 <$d.10+0x4b1>
     f22:	0000                	unimp
     f24:	0000                	unimp
     f26:	000ce62f          	vamoaddw.v	zero,(s9),v0,v12,v0.t
     f2a:	3000                	fld	fs0,32(s0)
     f2c:	0001                	nop
     f2e:	0100                	addi	s0,sp,128
     f30:	01ad                	addi	gp,gp,11
     f32:	10db0907          	0x10db0907
     f36:	0000                	unimp
     f38:	00000cef          	jal	s9,f38 <$d.10+0x5b1>
     f3c:	0d38                	addi	a4,sp,664
     f3e:	000a                	c.slli	zero,0x2
     f40:	7400                	ld	s0,40(s0)
     f42:	2008                	fld	fa0,0(s0)
     f44:	0080                	addi	s0,sp,64
     f46:	0000                	unimp
     f48:	1200                	addi	s0,sp,288
     f4a:	0000                	unimp
     f4c:	0100                	addi	s0,sp,128
     f4e:	0195                	addi	gp,gp,5
     f50:	1609                	addi	a2,a2,-30
     f52:	5a01                	li	s4,-32
     f54:	0a15                	addi	s4,s4,5
     f56:	0000                	unimp
     f58:	7f1c                	ld	a5,56(a4)
     f5a:	74000003          	lb	zero,1856(zero) # 740 <$d.3+0x41b>
     f5e:	2008                	fld	fa0,0(s0)
     f60:	0080                	addi	s0,sp,64
     f62:	0000                	unimp
     f64:	1200                	addi	s0,sp,288
     f66:	0000                	unimp
     f68:	0100                	addi	s0,sp,128
     f6a:	0116032f          	0x116032f
     f6e:	8b5a                	mv	s6,s6
     f70:	1d000003          	lb	zero,464(zero) # 1d0 <$d.5+0x40>
     f74:	9600                	0x9600
     f76:	1d000003          	lb	zero,464(zero) # 1d0 <$d.5+0x40>
     f7a:	a100                	fsd	fs0,0(a0)
     f7c:	1d000003          	lb	zero,464(zero) # 1d0 <$d.5+0x40>
     f80:	ac00                	fsd	fs0,24(s0)
     f82:	1d000003          	lb	zero,464(zero) # 1d0 <$d.5+0x40>
     f86:	b700                	fsd	fs0,40(a4)
     f88:	1d000003          	lb	zero,464(zero) # 1d0 <$d.5+0x40>
     f8c:	c200                	sw	s0,0(a2)
     f8e:	1d000003          	lb	zero,464(zero) # 1d0 <$d.5+0x40>
     f92:	cd00                	sw	s0,24(a0)
     f94:	1d000003          	lb	zero,464(zero) # 1d0 <$d.5+0x40>
     f98:	d801                	beqz	s0,ea8 <$d.10+0x521>
     f9a:	17000003          	lb	zero,368(zero) # 170 <$d.10+0x4e>
     f9e:	5a01                	li	s4,-32
     fa0:	0430                	addi	a2,sp,520
     fa2:	0000                	unimp
     fa4:	011e                	slli	sp,sp,0x7
     fa6:	0425                	addi	s0,s0,9
     fa8:	0000                	unimp
     faa:	001e                	c.slli	zero,0x7
     fac:	041a                	slli	s0,s0,0x6
     fae:	0000                	unimp
     fb0:	001e                	c.slli	zero,0x7
     fb2:	0000040f          	0x40f
     fb6:	001e                	c.slli	zero,0x7
     fb8:	0404                	addi	s1,sp,512
     fba:	0000                	unimp
     fbc:	001e                	c.slli	zero,0x7
     fbe:	03f9                	addi	t2,t2,30
     fc0:	0000                	unimp
     fc2:	001e                	c.slli	zero,0x7
     fc4:	03ee                	slli	t2,t2,0x1b
     fc6:	0000                	unimp
     fc8:	210a                	fld	ft2,128(sp)
     fca:	0011                	c.nop	4
     fcc:	e300                	sd	s0,0(a4)
     fce:	00000003          	lb	zero,0(zero) # 0 <$d.8>
     fd2:	0000                	unimp
     fd4:	882a                	mv	a6,a0
     fd6:	2008                	fld	fa0,0(s0)
     fd8:	0080                	addi	s0,sp,64
     fda:	0000                	unimp
     fdc:	0600                	addi	s0,sp,768
     fde:	0000                	unimp
     fe0:	3a00                	fld	fs0,48(a2)
     fe2:	5501                	li	a0,-32
     fe4:	03ed                	addi	t2,t2,27
     fe6:	0000                	unimp
     fe8:	b301                	j	ce8 <$d.10+0x361>
     fea:	d501                	beqz	a0,ef2 <$d.10+0x56b>
     fec:	0002                	c.slli64	zero
     fee:	0000                	unimp
     ff0:	0005d70b          	0x5d70b
     ff4:	b000                	fsd	fs0,32(s0)
     ff6:	2008                	fld	fa0,0(s0)
     ff8:	0080                	addi	s0,sp,64
     ffa:	0000                	unimp
     ffc:	0b00                	addi	s0,sp,400
     ffe:	000005d7          	vadd.vv	v11,v0,v0,v0.t
    1002:	08ce                	slli	a7,a7,0x13
    1004:	8020                	0x8020
    1006:	0000                	unimp
    1008:	0000                	unimp
    100a:	3200                	fld	fs0,32(a2)
    100c:	08d0                	addi	a2,sp,84
    100e:	8020                	0x8020
    1010:	0000                	unimp
    1012:	0000                	unimp
    1014:	008c                	addi	a1,sp,64
    1016:	0000                	unimp
    1018:	5201                	li	tp,-32
    101a:	001f 0000 ba01      	0xba010000001f
    1020:	2a01                	sext.w	s4,s4
    1022:	08f0                	addi	a2,sp,92
    1024:	8020                	0x8020
    1026:	0000                	unimp
    1028:	0000                	unimp
    102a:	000c                	0xc
    102c:	0000                	unimp
    102e:	562e                	lw	a2,232(sp)
    1030:	0011                	c.nop	4
    1032:	ed00                	sd	s0,24(a0)
    1034:	01000003          	lb	zero,16(zero) # 10 <$d.8+0x10>
    1038:	01bd                	addi	gp,gp,15
    103a:	02d5                	addi	t0,t0,21
    103c:	0000                	unimp
    103e:	0b00                	addi	s0,sp,400
    1040:	0604                	addi	s1,sp,768
    1042:	0000                	unimp
    1044:	08f0                	addi	a2,sp,92
    1046:	8020                	0x8020
    1048:	0000                	unimp
    104a:	0000                	unimp
    104c:	0007c40b          	0x7c40b
    1050:	0800                	addi	s0,sp,16
    1052:	2009                	0x2009
    1054:	0080                	addi	s0,sp,64
    1056:	0000                	unimp
    1058:	0b00                	addi	s0,sp,400
    105a:	07c4                	addi	s1,sp,964
    105c:	0000                	unimp
    105e:	0936                	slli	s2,s2,0xd
    1060:	8020                	0x8020
    1062:	0000                	unimp
    1064:	0000                	unimp
    1066:	0009720b          	0x9720b
    106a:	3e00                	fld	fs0,56(a2)
    106c:	2009                	0x2009
    106e:	0080                	addi	s0,sp,64
    1070:	0000                	unimp
    1072:	0b00                	addi	s0,sp,400
    1074:	000005d7          	vadd.vv	v11,v0,v0,v0.t
    1078:	095a                	slli	s2,s2,0x16
    107a:	8020                	0x8020
    107c:	0000                	unimp
    107e:	0000                	unimp
    1080:	3b00                	fld	fs0,48(a4)
    1082:	0000                	unimp
    1084:	8020                	0x8020
    1086:	0000                	unimp
    1088:	0000                	unimp
    108a:	000e                	c.slli	zero,0x3
    108c:	0000                	unimp
    108e:	5201                	li	tp,-32
    1090:	00e0                	addi	s0,sp,76
    1092:	0000                	unimp
    1094:	e001                	bnez	s0,1094 <$d.10+0x70d>
    1096:	0001                	nop

0000000000001098 <$d.4>:
    1098:	038e                	slli	t2,t2,0x3
    109a:	0000                	unimp
    109c:	0004                	0x4
    109e:	0325                	addi	t1,t1,9
    10a0:	0000                	unimp
    10a2:	0108                	addi	a0,sp,128
    10a4:	0122                	slli	sp,sp,0x8
    10a6:	0000                	unimp
    10a8:	001d                	c.nop	7
    10aa:	0099                	addi	ra,ra,6
    10ac:	0000                	unimp
    10ae:	00000987          	vlbu.v	v19,(zero),v0.t
    10b2:	02ad                	addi	t0,t0,11
    10b4:	0000                	unimp
    10b6:	095c                	addi	a5,sp,148
    10b8:	8020                	0x8020
    10ba:	0000                	unimp
    10bc:	0000                	unimp
    10be:	0280                	addi	s0,sp,320
    10c0:	0000                	unimp
    10c2:	3b02                	fld	fs6,32(sp)
    10c4:	0000                	unimp
    10c6:	0100                	addi	s0,sp,128
    10c8:	0954                	addi	a3,sp,148
    10ca:	200cd203          	lhu	tp,512(s9)
    10ce:	0080                	addi	s0,sp,64
    10d0:	0000                	unimp
    10d2:	0300                	addi	s0,sp,384
    10d4:	00000047          	fmsub.s	ft0,ft0,ft0,ft0,rne
    10d8:	4e04                	lw	s1,24(a2)
    10da:	0000                	unimp
    10dc:	1100                	addi	s0,sp,160
    10de:	0500                	addi	s0,sp,640
    10e0:	01e0                	addi	s0,sp,204
    10e2:	0000                	unimp
    10e4:	0108                	addi	a0,sp,128
    10e6:	0206                	slli	tp,tp,0x1
    10e8:	08000003          	lb	zero,128(zero) # 80 <$d.8+0x80>
    10ec:	005a0707          	0x5a0707
    10f0:	0000                	unimp
    10f2:	6508                	ld	a0,8(a0)
    10f4:	0000                	unimp
    10f6:	3f00                	fld	fs0,56(a4)
    10f8:	02000003          	lb	zero,32(zero) # 20 <$d.8+0x20>
    10fc:	0504                	addi	s1,sp,640
    10fe:	01c2                	slli	gp,gp,0x10
    1100:	0000                	unimp
    1102:	0108                	addi	a0,sp,128
    1104:	00007107          	vle.v	v2,(zero),v0.t
    1108:	0900                	addi	s0,sp,144
    110a:	005a                	c.slli	zero,0x16
    110c:	0000                	unimp
    110e:	00006507          	vlwu.v	v10,(zero),v0.t
    1112:	0a00                	addi	s0,sp,272
    1114:	095c                	addi	a5,sp,148
    1116:	8020                	0x8020
    1118:	0000                	unimp
    111a:	0000                	unimp
    111c:	0016                	c.slli	zero,0x5
    111e:	0000                	unimp
    1120:	5201                	li	tp,-32
    1122:	01ed                	addi	gp,gp,27
    1124:	0000                	unimp
    1126:	0301                	addi	t1,t1,0
    1128:	00000347          	fmsub.s	ft6,ft0,ft0,ft0,rne
    112c:	a25a010b          	0xa25a010b
    1130:	0000                	unimp
    1132:	0100                	addi	s0,sp,128
    1134:	00034703          	lbu	a4,0(t1) # 3a0e03b3 <_binary_shell_bin_size+0x3a0d0093>
    1138:	0b00                	addi	s0,sp,400
    113a:	5b01                	li	s6,-32
    113c:	00d2                	slli	ra,ra,0x14
    113e:	0000                	unimp
    1140:	0301                	addi	t1,t1,0
    1142:	00000047          	fmsub.s	ft0,ft0,ft0,ft0,rne
    1146:	e50c                	sd	a1,8(a0)
    1148:	0011                	c.nop	4
    114a:	6700                	ld	s0,8(a4)
    114c:	0000                	unimp
    114e:	0100                	addi	s0,sp,128
    1150:	00035403          	lhu	s0,0(t1)
    1154:	0d00                	addi	s0,sp,656
    1156:	1189                	addi	gp,gp,-30
    1158:	0000                	unimp
    115a:	005a                	c.slli	zero,0x16
    115c:	0000                	unimp
    115e:	0401                	addi	s0,s0,0
    1160:	0055                	c.nop	21
    1162:	0000                	unimp
    1164:	0a00                	addi	s0,sp,272
    1166:	0972                	slli	s2,s2,0x1c
    1168:	8020                	0x8020
    116a:	0000                	unimp
    116c:	0000                	unimp
    116e:	001c                	0x1c
    1170:	0000                	unimp
    1172:	5201                	li	tp,-32
    1174:	00c8                	addi	a0,sp,68
    1176:	0000                	unimp
    1178:	0a01                	addi	s4,s4,0
    117a:	00000347          	fmsub.s	ft6,ft0,ft0,ft0,rne
    117e:	355a010b          	0x355a010b
    1182:	0000                	unimp
    1184:	0100                	addi	s0,sp,128
    1186:	470a                	lw	a4,128(sp)
    1188:	0c000003          	lb	zero,192(zero) # c0 <$d.8+0xc0>
    118c:	120a                	slli	tp,tp,0x22
    118e:	0000                	unimp
    1190:	01be                	slli	gp,gp,0xf
    1192:	0000                	unimp
    1194:	0a01                	addi	s4,s4,0
    1196:	0371                	addi	t1,t1,28
    1198:	0000                	unimp
    119a:	890c                	0x890c
    119c:	0012                	c.slli	zero,0x4
    119e:	6700                	ld	s0,8(a4)
    11a0:	0000                	unimp
    11a2:	0100                	addi	s0,sp,128
    11a4:	540a                	lw	s0,160(sp)
    11a6:	0d000003          	lb	zero,208(zero) # d0 <$d.8+0xd0>
    11aa:	122d                	addi	tp,tp,-21
    11ac:	0000                	unimp
    11ae:	00000363          	beqz	zero,11b4 <$d.2+0x2b>
    11b2:	0b01                	addi	s6,s6,0
    11b4:	0055                	c.nop	21
    11b6:	0000                	unimp
    11b8:	010e                	slli	sp,sp,0x3
    11ba:	0000f55b          	0xf55b
    11be:	0100                	addi	s0,sp,128
    11c0:	6c0c                	ld	a1,24(s0)
    11c2:	0000                	unimp
    11c4:	0000                	unimp
    11c6:	8e0a                	mv	t3,sp
    11c8:	2009                	0x2009
    11ca:	0080                	addi	s0,sp,64
    11cc:	0000                	unimp
    11ce:	2400                	fld	fs0,8(s0)
    11d0:	0000                	unimp
    11d2:	0100                	addi	s0,sp,128
    11d4:	1652                	slli	a2,a2,0x34
    11d6:	0001                	nop
    11d8:	0100                	addi	s0,sp,128
    11da:	4812                	lw	a6,4(sp)
    11dc:	0b000003          	lb	zero,176(zero) # b0 <$d.8+0xb0>
    11e0:	5a01                	li	s4,-32
    11e2:	0035                	c.nop	13
    11e4:	0000                	unimp
    11e6:	1201                	addi	tp,tp,-32
    11e8:	0348                	addi	a0,sp,388
    11ea:	0000                	unimp
    11ec:	ae0c                	fsd	fa1,24(a2)
    11ee:	0012                	c.slli	zero,0x4
    11f0:	be00                	fsd	fs0,56(a2)
    11f2:	0001                	nop
    11f4:	0100                	addi	s0,sp,128
    11f6:	7712                	ld	a4,288(sp)
    11f8:	0d000003          	lb	zero,208(zero) # d0 <$d.8+0xd0>
    11fc:	12e4                	addi	s1,sp,364
    11fe:	0000                	unimp
    1200:	00000363          	beqz	zero,1206 <$d.2+0x7d>
    1204:	1301                	addi	t1,t1,-32
    1206:	0348                	addi	a0,sp,388
    1208:	0000                	unimp
    120a:	0a00                	addi	s0,sp,272
    120c:	09b2                	slli	s3,s3,0xc
    120e:	8020                	0x8020
    1210:	0000                	unimp
    1212:	0000                	unimp
    1214:	002e                	c.slli	zero,0xb
    1216:	0000                	unimp
    1218:	5201                	li	tp,-32
    121a:	0338                	addi	a4,sp,392
    121c:	0000                	unimp
    121e:	1a01                	addi	s4,s4,-32
    1220:	034d                	addi	t1,t1,19
    1222:	0000                	unimp
    1224:	2d0c                	fld	fa1,24(a0)
    1226:	cf000013          	li	zero,-784
    122a:	0000                	unimp
    122c:	0100                	addi	s0,sp,128
    122e:	771a                	ld	a4,416(sp)
    1230:	0c000003          	lb	zero,192(zero) # c0 <$d.8+0xc0>
    1234:	0000138b          	0x138b
    1238:	029d                	addi	t0,t0,7
    123a:	0000                	unimp
    123c:	1a01                	addi	s4,s4,-32
    123e:	00000377          	0x377
    1242:	0f00                	addi	s0,sp,912
    1244:	09e0                	addi	s0,sp,220
    1246:	8020                	0x8020
    1248:	0000                	unimp
    124a:	0000                	unimp
    124c:	01fc                	addi	a5,sp,204
    124e:	0000                	unimp
    1250:	5201                	li	tp,-32
    1252:	00000397          	auipc	t2,0x0
    1256:	2701                	sext.w	a4,a4
    1258:	ae0c                	fsd	fa1,24(a2)
    125a:	a1000013          	li	zero,-1520
    125e:	01000003          	lb	zero,16(zero) # 10 <$d.8+0x10>
    1262:	00037727          	vse.v	v14,(t1),v0.t
    1266:	0e00                	addi	s0,sp,784
    1268:	9102                	jalr	sp
    126a:	f300                	sd	s0,32(a4)
    126c:	01000003          	lb	zero,16(zero) # 10 <$d.8+0x10>
    1270:	8128                	0x8128
    1272:	10000003          	lb	zero,256(zero) # 100 <$d.8+0x100>
    1276:	037a                	slli	t1,t1,0x1e
    1278:	0000                	unimp
    127a:	5f01                	li	t5,-32
    127c:	0bbe                	slli	s7,s7,0xf
    127e:	8020                	0x8020
    1280:	0000                	unimp
    1282:	0000                	unimp
    1284:	9011                	srli	s0,s0,0x24
    1286:	0001                	nop
    1288:	0d00                	addi	s0,sp,656
    128a:	13e4                	addi	s1,sp,492
    128c:	0000                	unimp
    128e:	000000f7          	0xf7
    1292:	3e01                	addiw	t3,t3,-32
    1294:	038a                	slli	t2,t2,0x2
    1296:	0000                	unimp
    1298:	1a0d                	addi	s4,s4,-29
    129a:	0014                	0x14
    129c:	a500                	fsd	fs0,8(a0)
    129e:	01000003          	lb	zero,16(zero) # 10 <$d.8+0x10>
    12a2:	8a44                	0x8a44
    12a4:	12000003          	lb	zero,288(zero) # 120 <$d.8+0x120>
    12a8:	0225                	addi	tp,tp,9
    12aa:	0000                	unimp
    12ac:	3d01                	addiw	s10,s10,-32
    12ae:	034d                	addi	t1,t1,19
    12b0:	0000                	unimp
    12b2:	1300                	addi	s0,sp,416
    12b4:	0a8c                	addi	a1,sp,336
    12b6:	8020                	0x8020
    12b8:	0000                	unimp
    12ba:	0000                	unimp
    12bc:	009e                	slli	ra,ra,0x7
    12be:	0000                	unimp
    12c0:	450d                	li	a0,3
    12c2:	0015                	c.nop	5
    12c4:	2500                	fld	fs0,8(a0)
    12c6:	0002                	c.slli64	zero
    12c8:	0100                	addi	s0,sp,128
    12ca:	8a51                	andi	a2,a2,20
    12cc:	13000003          	lb	zero,304(zero) # 130 <$d.10+0xe>
    12d0:	0a98                	addi	a4,sp,336
    12d2:	8020                	0x8020
    12d4:	0000                	unimp
    12d6:	0000                	unimp
    12d8:	0092                	slli	ra,ra,0x4
    12da:	0000                	unimp
    12dc:	780d                	lui	a6,0xfffe3
    12de:	0014                	0x14
    12e0:	0e00                	addi	s0,sp,784
    12e2:	0000                	unimp
    12e4:	0100                	addi	s0,sp,128
    12e6:	4d52                	lw	s10,20(sp)
    12e8:	13000003          	lb	zero,304(zero) # 130 <$d.10+0xe>
    12ec:	0a98                	addi	a4,sp,336
    12ee:	8020                	0x8020
    12f0:	0000                	unimp
    12f2:	0000                	unimp
    12f4:	0092                	slli	ra,ra,0x4
    12f6:	0000                	unimp
    12f8:	680d                	lui	a6,0x3
    12fa:	0015                	c.nop	5
    12fc:	0100                	addi	s0,sp,128
    12fe:	0001                	nop
    1300:	0100                	addi	s0,sp,128
    1302:	00038a53          	fadd.s	fs4,ft7,ft0,rne
    1306:	0000                	unimp
    1308:	0000                	unimp
    130a:	200b3613          	sltiu	a2,s6,512
    130e:	0080                	addi	s0,sp,64
    1310:	0000                	unimp
    1312:	2a00                	fld	fs0,16(a2)
    1314:	0000                	unimp
    1316:	0d00                	addi	s0,sp,656
    1318:	15fd                	addi	a1,a1,-1
    131a:	0000                	unimp
    131c:	00f5                	addi	ra,ra,29
    131e:	0000                	unimp
    1320:	3501                	addiw	a0,a0,-32
    1322:	00000377          	0x377
    1326:	1400                	addi	s0,sp,544
    1328:	3a15                	addiw	s4,s4,-27
    132a:	52000003          	lb	zero,1312(zero) # 520 <$d.3+0x1fb>
    132e:	200a                	fld	ft0,128(sp)
    1330:	0080                	addi	s0,sp,64
    1332:	0000                	unimp
    1334:	1500                	addi	s0,sp,672
    1336:	033a                	slli	t1,t1,0xe
    1338:	0000                	unimp
    133a:	0aaa                	slli	s5,s5,0xa
    133c:	8020                	0x8020
    133e:	0000                	unimp
    1340:	0000                	unimp
    1342:	3a15                	addiw	s4,s4,-27
    1344:	be000003          	lb	zero,-1056(zero) # fffffffffffffbe0 <__free_ram_end+0xffffffff7bdbdbe0>
    1348:	200a                	fld	ft0,128(sp)
    134a:	0080                	addi	s0,sp,64
    134c:	0000                	unimp
    134e:	1500                	addi	s0,sp,672
    1350:	033a                	slli	t1,t1,0xe
    1352:	0000                	unimp
    1354:	0ad2                	slli	s5,s5,0x14
    1356:	8020                	0x8020
    1358:	0000                	unimp
    135a:	0000                	unimp
    135c:	3a15                	addiw	s4,s4,-27
    135e:	e6000003          	lb	zero,-416(zero) # fffffffffffffe60 <__free_ram_end+0xffffffff7bdbde60>
    1362:	200a                	fld	ft0,128(sp)
    1364:	0080                	addi	s0,sp,64
    1366:	0000                	unimp
    1368:	1500                	addi	s0,sp,672
    136a:	033a                	slli	t1,t1,0xe
    136c:	0000                	unimp
    136e:	0afa                	slli	s5,s5,0x1e
    1370:	8020                	0x8020
    1372:	0000                	unimp
    1374:	0000                	unimp
    1376:	3a15                	addiw	s4,s4,-27
    1378:	0e000003          	lb	zero,224(zero) # e0 <$d.8+0xe0>
    137c:	0080200b          	0x80200b
    1380:	0000                	unimp
    1382:	1500                	addi	s0,sp,672
    1384:	033a                	slli	t1,t1,0xe
    1386:	0000                	unimp
    1388:	0b22                	slli	s6,s6,0x8
    138a:	8020                	0x8020
    138c:	0000                	unimp
    138e:	0000                	unimp
    1390:	3a15                	addiw	s4,s4,-27
    1392:	32000003          	lb	zero,800(zero) # 320 <$d.9+0xf0>
    1396:	0080200b          	0x80200b
    139a:	0000                	unimp
    139c:	1500                	addi	s0,sp,672
    139e:	033a                	slli	t1,t1,0xe
    13a0:	0000                	unimp
    13a2:	0b56                	slli	s6,s6,0x15
    13a4:	8020                	0x8020
    13a6:	0000                	unimp
    13a8:	0000                	unimp
    13aa:	3a15                	addiw	s4,s4,-27
    13ac:	6c000003          	lb	zero,1728(zero) # 6c0 <$d.3+0x39b>
    13b0:	0080200b          	0x80200b
    13b4:	0000                	unimp
    13b6:	1500                	addi	s0,sp,672
    13b8:	033a                	slli	t1,t1,0xe
    13ba:	0000                	unimp
    13bc:	0b9a                	slli	s7,s7,0x6
    13be:	8020                	0x8020
    13c0:	0000                	unimp
    13c2:	0000                	unimp
    13c4:	3a15                	addiw	s4,s4,-27
    13c6:	be000003          	lb	zero,-1056(zero) # fffffffffffffbe0 <__free_ram_end+0xffffffff7bdbdbe0>
    13ca:	0080200b          	0x80200b
    13ce:	0000                	unimp
    13d0:	0000                	unimp
    13d2:	df16                	sw	t0,188(sp)
    13d4:	01000003          	lb	zero,16(zero) # 10 <$d.8+0x10>
    13d8:	1725                	addi	a4,a4,-23
    13da:	00000047          	fmsub.s	ft0,ft0,ft0,ft0,rne
    13de:	1800                	addi	s0,sp,48
    13e0:	00004707          	flq	fa4,0(zero) # 0 <$d.8>
    13e4:	0500                	addi	s0,sp,640
    13e6:	01e9                	addi	gp,gp,26
    13e8:	0000                	unimp
    13ea:	0405                	addi	s0,s0,1
    13ec:	5f08                	lw	a0,56(a4)
    13ee:	a6000003          	lb	zero,-1440(zero) # fffffffffffffa60 <__free_ram_end+0xffffffff7bdbda60>
    13f2:	0000                	unimp
    13f4:	0200                	addi	s0,sp,256
    13f6:	0809                	addi	a6,a6,2
    13f8:	036a                	slli	t1,t1,0x1a
    13fa:	0000                	unimp
    13fc:	0271                	addi	tp,tp,28
    13fe:	0000                	unimp
    1400:	0802                	c.slli64	a6
    1402:	8305                	srli	a4,a4,0x1
    1404:	07000003          	lb	zero,112(zero) # 70 <$d.8+0x70>
    1408:	0708                	addi	a0,sp,896
    140a:	0376                	slli	t1,t1,0x1d
    140c:	0000                	unimp
    140e:	0719                	addi	a4,a4,6
    1410:	037c                	addi	a5,sp,396
    1412:	0000                	unimp
    1414:	4709                	li	a4,2
    1416:	0000                	unimp
    1418:	1a00                	addi	s0,sp,304
    141a:	00000347          	fmsub.s	ft6,ft0,ft0,ft0,rne
    141e:	0365                	addi	t1,t1,25
    1420:	0000                	unimp
    1422:	a005                	j	1442 <$d.2+0x2b9>
    1424:	0002                	c.slli64	zero
    1426:	0700                	addi	s0,sp,896
    1428:	0004                	0x4

Disassembly of section .debug_ranges:

0000000000000000 <$d.9>:
   0:	0408                	addi	a0,sp,512
   2:	8020                	0x8020
   4:	0000                	unimp
   6:	0000                	unimp
   8:	0410                	addi	a2,sp,512
   a:	8020                	0x8020
   c:	0000                	unimp
   e:	0000                	unimp
  10:	0418                	addi	a4,sp,512
  12:	8020                	0x8020
  14:	0000                	unimp
  16:	0000                	unimp
  18:	045c                	addi	a5,sp,516
  1a:	8020                	0x8020
	...
  30:	047e                	slli	s0,s0,0x1f
  32:	8020                	0x8020
  34:	0000                	unimp
  36:	0000                	unimp
  38:	04e2                	slli	s1,s1,0x18
  3a:	8020                	0x8020
  3c:	0000                	unimp
  3e:	0000                	unimp
  40:	0520                	addi	s0,sp,648
  42:	8020                	0x8020
  44:	0000                	unimp
  46:	0000                	unimp
  48:	053e                	slli	a0,a0,0xf
  4a:	8020                	0x8020
	...
  60:	0490                	addi	a2,sp,576
  62:	8020                	0x8020
  64:	0000                	unimp
  66:	0000                	unimp
  68:	04b0                	addi	a2,sp,584
  6a:	8020                	0x8020
  6c:	0000                	unimp
  6e:	0000                	unimp
  70:	04be                	slli	s1,s1,0xf
  72:	8020                	0x8020
  74:	0000                	unimp
  76:	0000                	unimp
  78:	04e2                	slli	s1,s1,0x18
  7a:	8020                	0x8020
  7c:	0000                	unimp
  7e:	0000                	unimp
  80:	0520                	addi	s0,sp,648
  82:	8020                	0x8020
  84:	0000                	unimp
  86:	0000                	unimp
  88:	053e                	slli	a0,a0,0xf
  8a:	8020                	0x8020
	...
  a0:	04be                	slli	s1,s1,0xf
  a2:	8020                	0x8020
  a4:	0000                	unimp
  a6:	0000                	unimp
  a8:	04de                	slli	s1,s1,0x17
  aa:	8020                	0x8020
  ac:	0000                	unimp
  ae:	0000                	unimp
  b0:	0520                	addi	s0,sp,648
  b2:	8020                	0x8020
  b4:	0000                	unimp
  b6:	0000                	unimp
  b8:	053e                	slli	a0,a0,0xf
  ba:	8020                	0x8020
	...
  d0:	054e                	slli	a0,a0,0x13
  d2:	8020                	0x8020
  d4:	0000                	unimp
  d6:	0000                	unimp
  d8:	0570                	addi	a2,sp,652
  da:	8020                	0x8020
  dc:	0000                	unimp
  de:	0000                	unimp
  e0:	0576                	slli	a0,a0,0x1d
  e2:	8020                	0x8020
  e4:	0000                	unimp
  e6:	0000                	unimp
  e8:	06ba                	slli	a3,a3,0xe
  ea:	8020                	0x8020
	...
 100:	054e                	slli	a0,a0,0x13
 102:	8020                	0x8020
 104:	0000                	unimp
 106:	0000                	unimp
 108:	0570                	addi	a2,sp,652
 10a:	8020                	0x8020
 10c:	0000                	unimp
 10e:	0000                	unimp
 110:	0576                	slli	a0,a0,0x1d
 112:	8020                	0x8020
 114:	0000                	unimp
 116:	0000                	unimp
 118:	06ba                	slli	a3,a3,0xe
 11a:	8020                	0x8020
	...
 130:	082c                	addi	a1,sp,24
 132:	8020                	0x8020
 134:	0000                	unimp
 136:	0000                	unimp
 138:	0886                	slli	a7,a7,0x1
 13a:	8020                	0x8020
 13c:	0000                	unimp
 13e:	0000                	unimp
 140:	08b2                	slli	a7,a7,0xc
 142:	8020                	0x8020
 144:	0000                	unimp
 146:	0000                	unimp
 148:	08d0                	addi	a2,sp,84
 14a:	8020                	0x8020
	...
 160:	0010                	0x10
 162:	8020                	0x8020
 164:	0000                	unimp
 166:	0000                	unimp
 168:	095c                	addi	a5,sp,148
 16a:	8020                	0x8020
 16c:	0000                	unimp
 16e:	0000                	unimp
 170:	0000                	unimp
 172:	8020                	0x8020
 174:	0000                	unimp
 176:	0000                	unimp
 178:	000e                	c.slli	zero,0x3
 17a:	8020                	0x8020
	...

0000000000000190 <$d.5>:
 190:	0110                	addi	a2,sp,128
 192:	0000                	unimp
 194:	0000                	unimp
 196:	0000                	unimp
 198:	0128                	addi	a0,sp,136
 19a:	0000                	unimp
 19c:	0000                	unimp
 19e:	0000                	unimp
 1a0:	0204                	addi	s1,sp,256
 1a2:	0000                	unimp
 1a4:	0000                	unimp
 1a6:	0000                	unimp
 1a8:	0256                	slli	tp,tp,0x15
	...

Disassembly of section .debug_str:

0000000000000000 <$d.10-0x122>:
   0:	6e72656b          	0x6e72656b
   4:	6c65                	lui	s8,0x19
   6:	632e                	ld	t1,200(sp)
   8:	6c00                	ld	s0,24(s0)
   a:	00676e6f          	jal	t3,76010 <_binary_shell_bin_size+0x65cf0>
   e:	0069                	c.nop	26
  10:	00313173          	csrrc	sp,fcsr,sp
  14:	7274                	ld	a3,224(a2)
  16:	7061                	c.lui	zero,0xffff8
  18:	665f 6172 656d      	0x656d6172665f
  1e:	6b00                	ld	s0,16(a4)
  20:	7265                	lui	tp,0xffff9
  22:	656e                	ld	a0,216(sp)
  24:	5f6c                	lw	a1,124(a4)
  26:	616d                	addi	sp,sp,240
  28:	6e69                	lui	t3,0x1a
  2a:	7600                	ld	s0,40(a2)
  2c:	6e70                	ld	a2,216(a2)
  2e:	0030                	addi	a2,sp,8
  30:	7076                	0x7076
  32:	326e                	fld	ft4,248(sp)
  34:	6400                	ld	s0,8(s0)
  36:	61007473          	csrrci	s0,0x610,0
  3a:	0035                	c.nop	13
  3c:	7375                	lui	t1,0xffffd
  3e:	7265                	lui	tp,0xffff9
  40:	655f 746e 7972      	0x7972746e655f
  46:	6100                	ld	s0,0(a0)
  48:	70670033          	0x70670033
  4c:	7300                	ld	s0,32(a4)
  4e:	6f630033          	0x6f630033
  52:	7970                	ld	a2,240(a0)
  54:	735f 7a69 0065      	0x657a69735f
  5a:	0070                	addi	a2,sp,12
  5c:	656e                	ld	a0,216(sp)
  5e:	7478                	ld	a4,232(s0)
  60:	705f 6461 7264      	0x72646461705f
  66:	6e00                	ld	s0,24(a2)
  68:	7300                	ld	s0,32(a4)
  6a:	0034                	addi	a3,sp,8
  6c:	70003573          	csrrc	a0,0x700,zero
  70:	6461                	lui	s0,0x18
  72:	7264                	ld	s1,224(a2)
  74:	745f 7000 6f72      	0x6f727000745f
  7a:	73736563          	bltu	t1,s7,7a4 <$d.3+0x47f>
  7e:	7500                	ld	s0,40(a0)
  80:	6e69                	lui	t3,0x1a
  82:	7074                	ld	a3,224(s0)
  84:	7274                	ld	a3,224(a2)
  86:	745f 6100 6772      	0x67726100745f
  8c:	37610033          	0x37610033
  90:	7600                	ld	s0,40(a2)
  92:	6e70                	ld	a2,216(a2)
  94:	0031                	c.nop	12
  96:	3261                	addiw	tp,tp,-8
  98:	6300                	ld	s0,0(a4)
  9a:	6f6d6d6f          	jal	s10,d6790 <_binary_shell_bin_size+0xc6470>
  9e:	2e6e                	fld	ft8,216(sp)
  a0:	75620063          	beq	tp,s6,7e0 <$d.3+0x4bb>
  a4:	0066                	c.slli	zero,0x19
  a6:	657a6973          	csrrsi	s2,0x657,20
  aa:	745f 6100 6c6c      	0x6c6c6100745f
  b0:	705f636f          	jal	t1,f6fb4 <_binary_shell_bin_size+0xe6c94>
  b4:	6761                	lui	a4,0x18
  b6:	7365                	lui	t1,0xffff9
  b8:	7300                	ld	s0,32(a4)
  ba:	6174                	ld	a3,192(a0)
  bc:	6574                	ld	a3,200(a0)
  be:	7300                	ld	s0,32(a4)
  c0:	6962                	ld	s2,24(sp)
  c2:	635f 6c61 006c      	0x6c6c61635f
  c8:	656d                	lui	a0,0x1b
  ca:	636d                	lui	t1,0x1b
  cc:	7970                	ld	a2,240(a0)
  ce:	7300                	ld	s0,32(a4)
  d0:	0031                	c.nop	12
  d2:	72610063          	beq	sp,t1,7f2 <$d.3+0x4cd>
  d6:	74003467          	0x74003467
  da:	0032                	c.slli	zero,0xc
  dc:	00303173          	csrrc	sp,fcsr,zero
  e0:	6f62                	ld	t5,24(sp)
  e2:	7200746f          	jal	s0,7802 <$d.2+0x6679>
  e6:	5f746f6f          	jal	t5,46edc <_binary_shell_bin_size+0x36bbc>
  ea:	6174                	ld	a3,192(a0)
  ec:	6c62                	ld	s8,24(sp)
  ee:	0065                	c.nop	25
  f0:	7270                	ld	a2,224(a2)
  f2:	7300636f          	jal	t1,6822 <$d.2+0x5699>
  f6:	6d00                	ld	s0,24(a0)
  f8:	6761                	lui	a4,0x18
  fa:	696e                	ld	s2,216(sp)
  fc:	7574                	ld	a3,232(a0)
  fe:	6564                	ld	s1,200(a0)
 100:	6e00                	ld	s0,24(a2)
 102:	6269                	lui	tp,0x1a
 104:	6c62                	ld	s8,24(sp)
 106:	0065                	c.nop	25
 108:	6469                	lui	s0,0x1a
 10a:	656c                	ld	a1,200(a0)
 10c:	705f 6f72 0063      	0x636f72705f
 112:	6572                	ld	a0,280(sp)
 114:	0074                	addi	a3,sp,12
 116:	63727473          	csrrci	s0,0x637,4
 11a:	7970                	ld	a2,240(a0)
 11c:	7000                	ld	s0,32(s0)
 11e:	6761                	lui	a4,0x18
 120:	0065                	c.nop	25

0000000000000122 <$d.10>:
 122:	6e616c63          	bltu	sp,t1,81a <$d.3+0x4f5>
 126:	65762067          	0x65762067
 12a:	7372                	ld	t1,312(sp)
 12c:	6f69                	lui	t5,0x1a
 12e:	206e                	fld	ft0,216(sp)
 130:	3831                	addiw	a6,a6,-20
 132:	312e                	fld	ft2,232(sp)
 134:	382e                	fld	fa6,232(sp)
 136:	2820                	fld	fs0,80(s0)
 138:	7468                	ld	a0,232(s0)
 13a:	7074                	ld	a3,224(s0)
 13c:	2f2f3a73          	csrrc	s4,0x2f2,t5
 140:	68746967          	0x68746967
 144:	6275                	lui	tp,0x1d
 146:	632e                	ld	t1,200(sp)
 148:	6c2f6d6f          	jal	s10,f680a <_binary_shell_bin_size+0xe64ea>
 14c:	766c                	ld	a1,232(a2)
 14e:	2f6d                	addiw	t5,t5,27
 150:	6c6c                	ld	a1,216(s0)
 152:	6d76                	ld	s10,344(sp)
 154:	702d                	c.lui	zero,0xfffeb
 156:	6f72                	ld	t5,280(sp)
 158:	656a                	ld	a0,152(sp)
 15a:	672e7463          	bgeu	t3,s2,7c2 <$d.3+0x49d>
 15e:	7469                	lui	s0,0xffffa
 160:	3320                	fld	fs0,96(a4)
 162:	3562                	fld	fa0,56(sp)
 164:	3562                	fld	fa0,56(sp)
 166:	63653163          	0x63653163
 16a:	6134                	ld	a3,64(a0)
 16c:	35393033          	0x35393033
 170:	6261                	lui	tp,0x18
 172:	3930                	fld	fa2,112(a0)
 174:	6436                	ld	s0,328(sp)
 176:	3764                	fld	fs1,232(a4)
 178:	3038                	fld	fa4,96(s0)
 17a:	3865                	addiw	a6,a6,-7
 17c:	6434                	ld	a3,72(s0)
 17e:	38626137          	lui	sp,0x38626
 182:	6631                	lui	a2,0xc
 184:	66376433          	0x66376433
 188:	2966                	fld	fs2,88(sp)
 18a:	6300                	ld	s0,0(a4)
 18c:	7275                	lui	tp,0xffffd
 18e:	6572                	ld	a0,280(sp)
 190:	746e                	ld	s0,248(sp)
 192:	705f 6f72 0063      	0x636f72705f
 198:	73003073          	csrc	0x730,zero
 19c:	63746977          	0x63746977
 1a0:	5f68                	lw	a0,124(a4)
 1a2:	746e6f63          	bltu	t3,t1,900 <$d.3+0x5db>
 1a6:	7865                	lui	a6,0xffff9
 1a8:	0074                	addi	a3,sp,12
 1aa:	7270                	ld	a2,224(a2)
 1ac:	625f636f          	jal	t1,f6fd0 <_binary_shell_bin_size+0xe6cb0>
 1b0:	655f 746e 7972      	0x7972746e655f
 1b6:	6f00                	ld	s0,24(a4)
 1b8:	6666                	ld	a2,88(sp)
 1ba:	7400                	ld	s0,40(s0)
 1bc:	0035                	c.nop	13
 1be:	00637273          	csrrci	tp,0x6,6
 1c2:	6e75                	lui	t3,0x1d
 1c4:	6e676973          	csrrsi	s2,0x6e6,14
 1c8:	6465                	lui	s0,0x19
 1ca:	6320                	ld	s0,64(a4)
 1cc:	6168                	ld	a0,192(a0)
 1ce:	0072                	c.slli	zero,0x1c
 1d0:	3661                	addiw	a2,a2,-8
 1d2:	7000                	ld	s0,32(s0)
 1d4:	6f72                	ld	t5,280(sp)
 1d6:	5f615f63          	bge	sp,s6,7d4 <$d.3+0x4af>
 1da:	6e65                	lui	t3,0x19
 1dc:	7274                	ld	a3,224(a2)
 1de:	0079                	c.nop	30
 1e0:	72616863          	bltu	sp,t1,910 <$d.3+0x5eb>
 1e4:	7000                	ld	s0,32(s0)
 1e6:	6469                	lui	s0,0x1a
 1e8:	6900                	ld	s0,16(a0)
 1ea:	746e                	ld	s0,248(sp)
 1ec:	6d00                	ld	s0,24(a0)
 1ee:	6d65                	lui	s10,0x19
 1f0:	00746573          	csrrsi	a0,0x7,8
 1f4:	6174                	ld	a3,192(a0)
 1f6:	6c62                	ld	s8,24(sp)
 1f8:	3165                	addiw	sp,sp,-7
 1fa:	7300                	ld	s0,32(a4)
 1fc:	0038                	addi	a4,sp,8
 1fe:	61767473          	csrrci	s0,0x617,12
 202:	006c                	addi	a1,sp,12
 204:	74007073          	csrci	0x740,0
 208:	0036                	c.slli	zero,0xd
 20a:	6168                	ld	a0,192(a0)
 20c:	646e                	ld	s0,216(sp)
 20e:	656c                	ld	a1,200(a0)
 210:	745f 6172 0070      	0x706172745f
 216:	7470                	ld	a2,232(s0)
 218:	0031                	c.nop	12
 21a:	7270                	ld	a2,224(a2)
 21c:	7665                	lui	a2,0xffff9
 21e:	6500                	ld	s0,8(a0)
 220:	7272                	ld	tp,312(sp)
 222:	7600726f          	jal	tp,7982 <$d.2+0x67f9>
 226:	6c61                	lui	s8,0x18
 228:	6575                	lui	a0,0x1d
 22a:	6400                	ld	s0,8(s0)
 22c:	6c65                	lui	s8,0x19
 22e:	7961                	lui	s2,0xffff8
 230:	6600                	ld	s0,8(a2)
 232:	7400                	ld	s0,40(s0)
 234:	0030                	addi	a2,sp,8
 236:	3374                	fld	fa3,224(a4)
 238:	7000                	ld	s0,32(s0)
 23a:	6761                	lui	a4,0x18
 23c:	5f65                	li	t5,-7
 23e:	6174                	ld	a3,192(a0)
 240:	6c62                	ld	s8,24(sp)
 242:	0065                	c.nop	25
 244:	63617473          	csrrci	s0,0x636,2
 248:	6965006b          	0x6965006b
 24c:	0064                	addi	s1,sp,12
 24e:	3061                	0x3061
 250:	6d00                	ld	s0,24(a0)
 252:	6679                	lui	a2,0x1e
 254:	6e75                	lui	t3,0x1d
 256:	65720063          	beq	tp,s7,896 <$d.3+0x571>
 25a:	616d                	addi	sp,sp,240
 25c:	6e69                	lui	t3,0x1a
 25e:	6e69                	lui	t3,0x1a
 260:	616d0067          	jr	1558(s10) # 19616 <_binary_shell_bin_size+0x92f6>
 264:	5f70                	lw	a2,124(a4)
 266:	6170                	ld	a2,192(a0)
 268:	69006567          	0x69006567
 26c:	616d                	addi	sp,sp,240
 26e:	75006567          	0x75006567
 272:	6e69                	lui	t3,0x1a
 274:	3674                	fld	fa3,232(a2)
 276:	5f34                	lw	a3,120(a4)
 278:	0074                	addi	a3,sp,12
 27a:	72696273          	csrrsi	tp,0x726,18
 27e:	7465                	lui	s0,0xffff9
 280:	6600                	ld	s0,8(a2)
 282:	6469                	lui	s0,0x1a
 284:	6100                	ld	s0,0(a0)
 286:	0034                	addi	a3,sp,8
 288:	6170                	ld	a2,192(a0)
 28a:	6464                	ld	s1,200(s0)
 28c:	0072                	c.slli	zero,0x1c
 28e:	6168                	ld	a0,192(a0)
 290:	646e                	ld	s0,216(sp)
 292:	656c                	ld	a1,200(a0)
 294:	735f 7379 6163      	0x61637379735f
 29a:	6c6c                	ld	a1,216(s0)
 29c:	7300                	ld	s0,32(a4)
 29e:	0032                	c.slli	zero,0xc
 2a0:	6e75                	lui	t3,0x1d
 2a2:	6e676973          	csrrsi	s2,0x6e6,14
 2a6:	6465                	lui	s0,0x19
 2a8:	6920                	ld	s0,80(a0)
 2aa:	746e                	ld	s0,248(sp)
 2ac:	2f00                	fld	fs0,24(a4)
 2ae:	6f68                	ld	a0,216(a4)
 2b0:	656d                	lui	a0,0x1b
 2b2:	636f6c2f          	vamoandw.v	zero,(t5),v22,v24
 2b6:	6c61                	lui	s8,0x18
 2b8:	5553412f          	0x5553412f
 2bc:	4441                	li	s0,16
 2be:	616b652f          	vamoandw.v	zero,(s6),v22,v10,v0.t
 2c2:	6179                	addi	sp,sp,464
 2c4:	676e                	ld	a4,216(sp)
 2c6:	636f442f          	0x636f442f
 2ca:	6d75                	lui	s10,0x1d
 2cc:	6e65                	lui	t3,0x19
 2ce:	7374                	ld	a3,224(a4)
 2d0:	7469472f          	0x7469472f
 2d4:	7568                	ld	a0,232(a0)
 2d6:	2f62                	fld	ft10,24(sp)
 2d8:	696d                	lui	s2,0x1b
 2da:	6f6e                	ld	t5,216(sp)
 2dc:	65670073          	0x65670073
 2e0:	6374                	ld	a3,192(a4)
 2e2:	6168                	ld	a0,192(a0)
 2e4:	0072                	c.slli	zero,0x1c
 2e6:	61657263          	bgeu	a0,s6,8ea <$d.3+0x5c5>
 2ea:	6574                	ld	a3,200(a0)
 2ec:	705f 6f72 6563      	0x65636f72705f
 2f2:	6e007373          	csrrci	t1,0x6e0,0
 2f6:	7865                	lui	a6,0xffff9
 2f8:	0074                	addi	a3,sp,12
 2fa:	7375                	lui	t1,0xffffd
 2fc:	7265                	lui	tp,0xffff9
 2fe:	705f 0063 5f5f      	0x5f5f0063705f
 304:	5241                	li	tp,-16
 306:	4152                	lw	sp,20(sp)
 308:	5f59                	li	t5,-10
 30a:	455a4953          	0x455a4953
 30e:	545f 5059 5f45      	0x5f455059545f
 314:	005f 6176 6464      	0x64646176005f
 31a:	5f72                	lw	t5,60(sp)
 31c:	0074                	addi	a3,sp,12
 31e:	7261                	lui	tp,0xffff8
 320:	61003567          	0x61003567
 324:	0031                	c.nop	12
 326:	3174                	fld	fa3,224(a0)
 328:	7000                	ld	s0,32(s0)
 32a:	3074                	fld	fa3,224(s0)
 32c:	6900                	ld	s0,16(a0)
 32e:	616d                	addi	sp,sp,240
 330:	735f6567          	0x735f6567
 334:	7a69                	lui	s4,0xffffa
 336:	0065                	c.nop	25
 338:	63727473          	csrrci	s0,0x637,4
 33c:	706d                	c.lui	zero,0xffffb
 33e:	7500                	ld	s0,40(a0)
 340:	6e69                	lui	t3,0x1a
 342:	3874                	fld	fa3,240(s0)
 344:	745f 7400 0034      	0x347400745f
 34a:	6979                	lui	s2,0x1e
 34c:	6c65                	lui	s8,0x19
 34e:	0064                	addi	s1,sp,12
 350:	6176                	ld	sp,344(sp)
 352:	6464                	ld	s1,200(s0)
 354:	0072                	c.slli	zero,0x1c
 356:	6c66                	ld	s8,88(sp)
 358:	6761                	lui	a4,0x18
 35a:	63730073          	0x63730073
 35e:	7561                	lui	a0,0xffff8
 360:	64006573          	csrrsi	a0,0x640,0
 364:	5f00                	lw	s0,56(a4)
 366:	625f 6975 746c      	0x746c6975625f
 36c:	6e69                	lui	t3,0x1a
 36e:	765f 5f61 696c      	0x696c5f61765f
 374:	73007473          	csrrci	s0,0x730,0
 378:	6e650037          	lui	zero,0x6e650
 37c:	0064                	addi	s1,sp,12
 37e:	7261                	lui	tp,0xffff8
 380:	75003067          	0x75003067
 384:	736e                	ld	t1,248(sp)
 386:	6769                	lui	a4,0x1a
 388:	656e                	ld	a0,216(sp)
 38a:	2064                	fld	fs1,192(s0)
 38c:	6f6c                	ld	a1,216(a4)
 38e:	676e                	ld	a4,216(sp)
 390:	7000                	ld	s0,32(s0)
 392:	6f72                	ld	t5,280(sp)
 394:	70007363          	bgeu	zero,zero,a9a <$d.10+0x113>
 398:	6972                	ld	s2,280(sp)
 39a:	746e                	ld	s0,248(sp)
 39c:	0066                	c.slli	zero,0x19
 39e:	66003673          	csrrc	a2,0x660,zero
 3a2:	746d                	lui	s0,0xffffb
 3a4:	6400                	ld	s0,8(s0)
 3a6:	7669                	lui	a2,0xffffa
 3a8:	7369                	lui	t1,0xffffa
 3aa:	6100726f          	jal	tp,79ba <$d.2+0x6831>
 3ae:	6772                	ld	a4,280(sp)
 3b0:	0032                	c.slli	zero,0xc
 3b2:	6e72656b          	0x6e72656b
 3b6:	6c65                	lui	s8,0x19
 3b8:	655f 746e 7972      	0x7972746e655f
 3be:	7000                	ld	s0,32(s0)
 3c0:	6f72                	ld	t5,280(sp)
 3c2:	00615f63          	bge	sp,t1,3e0 <$d.3+0xbb>
 3c6:	6172                	ld	sp,280(sp)
 3c8:	7300                	ld	s0,32(a4)
 3ca:	0039                	c.nop	14
 3cc:	6174                	ld	a3,192(a0)
 3ce:	6c62                	ld	s8,24(sp)
 3d0:	3065                	0x3065
 3d2:	7000                	ld	s0,32(s0)
 3d4:	6f72                	ld	t5,280(sp)
 3d6:	00625f63          	bge	tp,t1,3f4 <$d.3+0xcf>
 3da:	7261                	lui	tp,0xffff8
 3dc:	70003167          	0x70003167
 3e0:	7475                	lui	s0,0xffffd
 3e2:	72616863          	bltu	sp,t1,b12 <$d.10+0x18b>
 3e6:	6300                	ld	s0,0(a4)
 3e8:	0068                	addi	a0,sp,12
 3ea:	7074                	ld	a3,224(s0)
 3ec:	5f00                	lw	s0,56(a4)
 3ee:	745f 706d 7600      	0x7600706d745f
 3f4:	7261                	lui	tp,0xffff8
 3f6:	          	0x7367

Disassembly of section .comment:

0000000000000000 <$d.11>:
   0:	6300                	ld	s0,0(a4)
   2:	616c                	ld	a1,192(a0)
   4:	676e                	ld	a4,216(sp)
   6:	7620                	ld	s0,104(a2)
   8:	7265                	lui	tp,0xffff9
   a:	6e6f6973          	csrrsi	s2,0x6e6,30
   e:	3120                	fld	fs0,96(a0)
  10:	2e38                	fld	fa4,88(a2)
  12:	2e31                	addiw	t3,t3,12
  14:	2038                	fld	fa4,64(s0)
  16:	6828                	ld	a0,80(s0)
  18:	7474                	ld	a3,232(s0)
  1a:	7370                	ld	a2,224(a4)
  1c:	2f3a                	fld	ft10,392(sp)
  1e:	7469672f          	0x7469672f
  22:	7568                	ld	a0,232(a0)
  24:	2e62                	fld	ft8,24(sp)
  26:	2f6d6f63          	bltu	s10,s6,324 <$d.9+0xf4>
  2a:	6c6c                	ld	a1,216(s0)
  2c:	6d76                	ld	s10,344(sp)
  2e:	766c6c2f          	0x766c6c2f
  32:	2d6d                	addiw	s10,s10,27
  34:	7270                	ld	a2,224(a2)
  36:	63656a6f          	jal	s4,5666c <_binary_shell_bin_size+0x4634c>
  3a:	2e74                	fld	fa3,216(a2)
  3c:	20746967          	0x20746967
  40:	62356233          	0x62356233
  44:	6335                	lui	t1,0xd
  46:	6531                	lui	a0,0xc
  48:	33613463          	0x33613463
  4c:	3930                	fld	fa2,112(a0)
  4e:	6135                	addi	sp,sp,352
  50:	3062                	fld	ft0,56(sp)
  52:	3639                	addiw	a2,a2,-18
  54:	6464                	ld	s1,200(s0)
  56:	65303837          	lui	a6,0x65303
  5a:	3438                	fld	fa4,104(s0)
  5c:	3764                	fld	fs1,232(a4)
  5e:	6261                	lui	tp,0x18
  60:	3138                	fld	fa4,96(a0)
  62:	3366                	fld	ft6,120(sp)
  64:	3764                	fld	fs1,232(a4)
  66:	6666                	ld	a2,88(sp)
  68:	0029                	c.nop	10
  6a:	694c                	ld	a1,144(a0)
  6c:	6b6e                	ld	s6,216(sp)
  6e:	7265                	lui	tp,0xffff9
  70:	203a                	fld	ft0,392(sp)
  72:	4c4c                	lw	a1,28(s0)
  74:	2044                	fld	fs1,128(s0)
  76:	3831                	addiw	a6,a6,-20
  78:	312e                	fld	ft2,232(sp)
  7a:	382e                	fld	fa6,232(sp)
	...

Disassembly of section .riscv.attributes:

0000000000000000 <.riscv.attributes>:
   0:	2a41                	addiw	s4,s4,16
   2:	0000                	unimp
   4:	7200                	ld	s0,32(a2)
   6:	7369                	lui	t1,0xffffa
   8:	01007663          	bgeu	zero,a6,14 <$d.12+0x14>
   c:	0020                	addi	s0,sp,8
   e:	0000                	unimp
  10:	1004                	addi	s1,sp,32
  12:	7205                	lui	tp,0xfffe1
  14:	3676                	fld	fa2,376(sp)
  16:	6934                	ld	a3,80(a0)
  18:	7032                	0x7032
  1a:	5f31                	li	t5,-20
  1c:	326d                	addiw	tp,tp,-5
  1e:	3070                	fld	fa2,224(s0)
  20:	615f 7032 5f31      	0x5f317032615f
  26:	30703263          	0x30703263
	...

Disassembly of section .debug_frame:

0000000000000000 <$d.13>:
   0:	0014                	0x14
   2:	0000                	unimp
   4:	ffff                	0xffff
   6:	ffff                	0xffff
   8:	0004                	0x4
   a:	0008                	0x8
   c:	7801                	lui	a6,0xfffe0
   e:	0c01                	addi	s8,s8,0
  10:	0002                	c.slli64	zero
  12:	0000                	unimp
  14:	0000                	unimp
  16:	0000                	unimp
  18:	0014                	0x14
  1a:	0000                	unimp
  1c:	0000                	unimp
  1e:	0000                	unimp
  20:	0010                	0x10
  22:	8020                	0x8020
  24:	0000                	unimp
  26:	0000                	unimp
  28:	0006                	c.slli	zero,0x1
  2a:	0000                	unimp
  2c:	0000                	unimp
  2e:	0000                	unimp
  30:	0014                	0x14
  32:	0000                	unimp
  34:	0000                	unimp
  36:	0000                	unimp
  38:	0016                	c.slli	zero,0x5
  3a:	8020                	0x8020
  3c:	0000                	unimp
  3e:	0000                	unimp
  40:	0014                	0x14
  42:	0000                	unimp
  44:	0000                	unimp
  46:	0000                	unimp
  48:	0014                	0x14
  4a:	0000                	unimp
  4c:	0000                	unimp
  4e:	0000                	unimp
  50:	002a                	c.slli	zero,0xa
  52:	8020                	0x8020
  54:	0000                	unimp
  56:	0000                	unimp
  58:	0016                	c.slli	zero,0x5
  5a:	0000                	unimp
  5c:	0000                	unimp
  5e:	0000                	unimp
  60:	0014                	0x14
  62:	0000                	unimp
  64:	0000                	unimp
  66:	0000                	unimp
  68:	0040                	addi	s0,sp,4
  6a:	8020                	0x8020
  6c:	0000                	unimp
  6e:	0000                	unimp
  70:	009c                	addi	a5,sp,64
  72:	0000                	unimp
  74:	0000                	unimp
  76:	0000                	unimp
  78:	001c                	0x1c
  7a:	0000                	unimp
  7c:	0000                	unimp
  7e:	0000                	unimp
  80:	00dc                	addi	a5,sp,68
  82:	8020                	0x8020
  84:	0000                	unimp
  86:	0000                	unimp
  88:	0022                	c.slli	zero,0x8
  8a:	0000                	unimp
  8c:	0000                	unimp
  8e:	0000                	unimp
  90:	0e42                	slli	t3,t3,0x10
  92:	4210                	lw	a2,0(a2)
  94:	0181                	addi	gp,gp,0
  96:	0000                	unimp
  98:	0014                	0x14
  9a:	0000                	unimp
  9c:	0000                	unimp
  9e:	0000                	unimp
  a0:	00fe                	slli	ra,ra,0x1f
  a2:	8020                	0x8020
  a4:	0000                	unimp
  a6:	0000                	unimp
  a8:	0046                	c.slli	zero,0x11
  aa:	0000                	unimp
  ac:	0000                	unimp
  ae:	0000                	unimp
  b0:	001c                	0x1c
  b2:	0000                	unimp
  b4:	0000                	unimp
  b6:	0000                	unimp
  b8:	0144                	addi	s1,sp,132
  ba:	8020                	0x8020
  bc:	0000                	unimp
  be:	0000                	unimp
  c0:	005a                	c.slli	zero,0x16
  c2:	0000                	unimp
  c4:	0000                	unimp
  c6:	0000                	unimp
  c8:	0e42                	slli	t3,t3,0x10
  ca:	4410                	lw	a2,8(s0)
  cc:	0181                	addi	gp,gp,0
  ce:	0288                	addi	a0,sp,320
  d0:	0024                	addi	s1,sp,8
  d2:	0000                	unimp
  d4:	0000                	unimp
  d6:	0000                	unimp
  d8:	019e                	slli	gp,gp,0x7
  da:	8020                	0x8020
  dc:	0000                	unimp
  de:	0000                	unimp
  e0:	0164                	addi	s1,sp,140
  e2:	0000                	unimp
  e4:	0000                	unimp
  e6:	0000                	unimp
  e8:	0e42                	slli	t3,t3,0x10
  ea:	4c30                	lw	a2,88(s0)
  ec:	0181                	addi	gp,gp,0
  ee:	0288                	addi	a0,sp,320
  f0:	0389                	addi	t2,t2,2
  f2:	0492                	slli	s1,s1,0x4
  f4:	06940593          	addi	a1,s0,105 # ffffffffffffd069 <__free_ram_end+0xffffffff7bdbb069>
  f8:	0014                	0x14
  fa:	0000                	unimp
  fc:	0000                	unimp
  fe:	0000                	unimp
 100:	0302                	c.slli64	t1
 102:	8020                	0x8020
 104:	0000                	unimp
 106:	0000                	unimp
 108:	0014                	0x14
 10a:	0000                	unimp
 10c:	0000                	unimp
 10e:	0000                	unimp
 110:	0034                	addi	a3,sp,8
 112:	0000                	unimp
 114:	0000                	unimp
 116:	0000                	unimp
 118:	0316                	slli	t1,t1,0x5
 11a:	8020                	0x8020
 11c:	0000                	unimp
 11e:	0000                	unimp
 120:	0228                	addi	a0,sp,264
 122:	0000                	unimp
 124:	0000                	unimp
 126:	0000                	unimp
 128:	0e42                	slli	t3,t3,0x10
 12a:	0180                	addi	s0,sp,192
 12c:	815a                	mv	sp,s6
 12e:	8801                	andi	s0,s0,0
 130:	8902                	jr	s2
 132:	93049203          	lh	tp,-1744(s1)
 136:	9405                	srai	s0,s0,0x21
 138:	9506                	add	a0,a0,ra
 13a:	97089607          	0x97089607
 13e:	9809                	andi	s0,s0,-30
 140:	990a                	add	s2,s2,sp
 142:	9b0c9a0b          	0x9b0c9a0b
 146:	000d                	c.nop	3
 148:	0014                	0x14
 14a:	0000                	unimp
 14c:	0000                	unimp
 14e:	0000                	unimp
 150:	053e                	slli	a0,a0,0xf
 152:	8020                	0x8020
 154:	0000                	unimp
 156:	0000                	unimp
 158:	01ba                	slli	gp,gp,0xe
 15a:	0000                	unimp
 15c:	0000                	unimp
 15e:	0000                	unimp
 160:	0014                	0x14
 162:	0000                	unimp
 164:	0000                	unimp
 166:	0000                	unimp
 168:	06f8                	addi	a4,sp,844
 16a:	8020                	0x8020
 16c:	0000                	unimp
 16e:	0000                	unimp
 170:	0010                	0x10
 172:	0000                	unimp
 174:	0000                	unimp
 176:	0000                	unimp
 178:	001c                	0x1c
 17a:	0000                	unimp
 17c:	0000                	unimp
 17e:	0000                	unimp
 180:	0708                	addi	a0,sp,896
 182:	8020                	0x8020
 184:	0000                	unimp
 186:	0000                	unimp
 188:	0046                	c.slli	zero,0x11
 18a:	0000                	unimp
 18c:	0000                	unimp
 18e:	0000                	unimp
 190:	0e42                	slli	t3,t3,0x10
 192:	4410                	lw	a2,8(s0)
 194:	0181                	addi	gp,gp,0
 196:	0288                	addi	a0,sp,320
 198:	001c                	0x1c
 19a:	0000                	unimp
 19c:	0000                	unimp
 19e:	0000                	unimp
 1a0:	074e                	slli	a4,a4,0x13
 1a2:	8020                	0x8020
 1a4:	0000                	unimp
 1a6:	0000                	unimp
 1a8:	0046                	c.slli	zero,0x11
 1aa:	0000                	unimp
 1ac:	0000                	unimp
 1ae:	0000                	unimp
 1b0:	0e42                	slli	t3,t3,0x10
 1b2:	4410                	lw	a2,8(s0)
 1b4:	0181                	addi	gp,gp,0
 1b6:	0288                	addi	a0,sp,320
 1b8:	001c                	0x1c
 1ba:	0000                	unimp
 1bc:	0000                	unimp
 1be:	0000                	unimp
 1c0:	0794                	addi	a3,sp,960
 1c2:	8020                	0x8020
 1c4:	0000                	unimp
 1c6:	0000                	unimp
 1c8:	0082                	c.slli64	ra
 1ca:	0000                	unimp
 1cc:	0000                	unimp
 1ce:	0000                	unimp
 1d0:	5e02                	lw	t3,32(sp)
 1d2:	100e                	c.slli	zero,0x23
 1d4:	8142                	mv	sp,a6
 1d6:	0001                	nop
 1d8:	001c                	0x1c
 1da:	0000                	unimp
 1dc:	0000                	unimp
 1de:	0000                	unimp
 1e0:	0816                	slli	a6,a6,0x5
 1e2:	8020                	0x8020
 1e4:	0000                	unimp
 1e6:	0000                	unimp
 1e8:	00ba                	slli	ra,ra,0xe
 1ea:	0000                	unimp
 1ec:	0000                	unimp
 1ee:	0000                	unimp
 1f0:	0e42                	slli	t3,t3,0x10
 1f2:	4210                	lw	a2,0(a2)
 1f4:	0181                	addi	gp,gp,0
 1f6:	0000                	unimp
 1f8:	001c                	0x1c
 1fa:	0000                	unimp
 1fc:	0000                	unimp
 1fe:	0000                	unimp
 200:	08d0                	addi	a2,sp,84
 202:	8020                	0x8020
 204:	0000                	unimp
 206:	0000                	unimp
 208:	008c                	addi	a1,sp,64
 20a:	0000                	unimp
 20c:	0000                	unimp
 20e:	0000                	unimp
 210:	0e42                	slli	t3,t3,0x10
 212:	4210                	lw	a2,0(a2)
 214:	0181                	addi	gp,gp,0
 216:	0000                	unimp
 218:	0014                	0x14
	...
 222:	8020                	0x8020
 224:	0000                	unimp
 226:	0000                	unimp
 228:	000e                	c.slli	zero,0x3
 22a:	0000                	unimp
 22c:	0000                	unimp
	...

0000000000000230 <$d.9>:
 230:	0014                	0x14
 232:	0000                	unimp
 234:	ffff                	0xffff
 236:	ffff                	0xffff
 238:	0004                	0x4
 23a:	0008                	0x8
 23c:	7801                	lui	a6,0xfffe0
 23e:	0c01                	addi	s8,s8,0
 240:	0002                	c.slli64	zero
 242:	0000                	unimp
 244:	0000                	unimp
 246:	0000                	unimp
 248:	0014                	0x14
 24a:	0000                	unimp
 24c:	0230                	addi	a2,sp,264
 24e:	0000                	unimp
 250:	095c                	addi	a5,sp,148
 252:	8020                	0x8020
 254:	0000                	unimp
 256:	0000                	unimp
 258:	0016                	c.slli	zero,0x5
 25a:	0000                	unimp
 25c:	0000                	unimp
 25e:	0000                	unimp
 260:	0014                	0x14
 262:	0000                	unimp
 264:	0230                	addi	a2,sp,264
 266:	0000                	unimp
 268:	0972                	slli	s2,s2,0x1c
 26a:	8020                	0x8020
 26c:	0000                	unimp
 26e:	0000                	unimp
 270:	001c                	0x1c
 272:	0000                	unimp
 274:	0000                	unimp
 276:	0000                	unimp
 278:	0014                	0x14
 27a:	0000                	unimp
 27c:	0230                	addi	a2,sp,264
 27e:	0000                	unimp
 280:	098e                	slli	s3,s3,0x3
 282:	8020                	0x8020
 284:	0000                	unimp
 286:	0000                	unimp
 288:	0024                	addi	s1,sp,8
 28a:	0000                	unimp
 28c:	0000                	unimp
 28e:	0000                	unimp
 290:	0014                	0x14
 292:	0000                	unimp
 294:	0230                	addi	a2,sp,264
 296:	0000                	unimp
 298:	09b2                	slli	s3,s3,0xc
 29a:	8020                	0x8020
 29c:	0000                	unimp
 29e:	0000                	unimp
 2a0:	002e                	c.slli	zero,0xb
 2a2:	0000                	unimp
 2a4:	0000                	unimp
 2a6:	0000                	unimp
 2a8:	0034                	addi	a3,sp,8
 2aa:	0000                	unimp
 2ac:	0230                	addi	a2,sp,264
 2ae:	0000                	unimp
 2b0:	09e0                	addi	s0,sp,220
 2b2:	8020                	0x8020
 2b4:	0000                	unimp
 2b6:	0000                	unimp
 2b8:	01fc                	addi	a5,sp,204
 2ba:	0000                	unimp
 2bc:	0000                	unimp
 2be:	0000                	unimp
 2c0:	0e42                	slli	t3,t3,0x10
 2c2:	01b0                	addi	a2,sp,200
 2c4:	815a                	mv	sp,s6
 2c6:	8809                	andi	s0,s0,2
 2c8:	890a                	mv	s2,sp
 2ca:	930c920b          	0x930c920b
 2ce:	940d                	srai	s0,s0,0x23
 2d0:	950e                	add	a0,a0,gp
 2d2:	9710960f          	0x9710960f
 2d6:	9811                	andi	s0,s0,-28
 2d8:	9912                	add	s2,s2,tp
 2da:	9b149a13          	0x9b149a13
 2de:	0015                	c.nop	5

Disassembly of section .debug_line:

0000000000000000 <$d.14>:
   0:	00000983          	lb	s3,0(zero) # 0 <$d.14>
   4:	0004                	0x4
   6:	0066                	c.slli	zero,0x19
   8:	0000                	unimp
   a:	0101                	addi	sp,sp,0
   c:	fb01                	bnez	a4,ffffffffffffff1c <__free_ram_end+0xffffffff7bdbdf1c>
   e:	0d0e                	slli	s10,s10,0x3
  10:	0100                	addi	s0,sp,128
  12:	0101                	addi	sp,sp,0
  14:	0001                	nop
  16:	0000                	unimp
  18:	0001                	nop
  1a:	0100                	addi	s0,sp,128
  1c:	002e                	c.slli	zero,0xb
  1e:	7273752f          	0x7273752f
  22:	636f6c2f          	vamoandw.v	zero,(t5),v22,v24
  26:	6c61                	lui	s8,0x18
  28:	62696c2f          	vamoandw.v	zero,(s2),v6,v24
  2c:	616c632f          	vamoandw.v	zero,(s8),v22,v6,v0.t
  30:	676e                	ld	a4,216(sp)
  32:	2f38312f          	0x2f38312f
  36:	6e69                	lui	t3,0x1a
  38:	64756c63          	bltu	a0,t2,690 <$d.3+0x36b>
  3c:	0065                	c.nop	25
  3e:	6b00                	ld	s0,16(a4)
  40:	7265                	lui	tp,0xffff9
  42:	656e                	ld	a0,216(sp)
  44:	2e6c                	fld	fa1,216(a2)
  46:	00000063          	beqz	zero,46 <$d.14+0x46>
  4a:	6300                	ld	s0,0(a4)
  4c:	6f6d6d6f          	jal	s10,d6742 <_binary_shell_bin_size+0xc6422>
  50:	2e6e                	fld	ft8,216(sp)
  52:	0068                	addi	a0,sp,12
  54:	0001                	nop
  56:	6b00                	ld	s0,16(a4)
  58:	7265                	lui	tp,0xffff9
  5a:	656e                	ld	a0,216(sp)
  5c:	2e6c                	fld	fa1,216(a2)
  5e:	0068                	addi	a0,sp,12
  60:	0001                	nop
  62:	7300                	ld	s0,32(a4)
  64:	6474                	ld	a3,200(s0)
  66:	6e69                	lui	t3,0x1a
  68:	2e74                	fld	fa3,216(a2)
  6a:	0068                	addi	a0,sp,12
  6c:	0002                	c.slli64	zero
  6e:	0000                	unimp
  70:	0305                	addi	t1,t1,1
  72:	000a                	c.slli	zero,0x2
  74:	0209                	addi	tp,tp,2
  76:	0010                	0x10
  78:	8020                	0x8020
  7a:	0000                	unimp
  7c:	0000                	unimp
  7e:	05012503          	lw	a0,80(sp) # 38626050 <_binary_shell_bin_size+0x38615d30>
  82:	0301                	addi	t1,t1,0
  84:	0906                	slli	s2,s2,0x1
  86:	0004                	0x4
  88:	0501                	addi	a0,a0,0
  8a:	7a030a03          	lb	s4,1952(t1) # ffffffffffffa7a0 <__free_ram_end+0xffffffff7bdb87a0>
  8e:	0209                	addi	tp,tp,2
  90:	0100                	addi	s0,sp,128
  92:	0105                	addi	sp,sp,1
  94:	12090a03          	lb	s4,288(s2) # 1e120 <_binary_shell_bin_size+0xde00>
  98:	0100                	addi	s0,sp,128
  9a:	0305                	addi	t1,t1,1
  9c:	030a                	slli	t1,t1,0x2
  9e:	0976                	slli	s2,s2,0x1d
  a0:	0002                	c.slli64	zero
  a2:	0301                	addi	t1,t1,0
  a4:	090e                	slli	s2,s2,0x3
  a6:	0014                	0x14
  a8:	0a01                	addi	s4,s4,0
  aa:	02090403          	lb	s0,32(s2)
  ae:	0100                	addi	s0,sp,128
  b0:	0005                	c.nop	1
  b2:	0900ce03          	lbu	t3,144(ra)
  b6:	009c                	addi	a5,sp,64
  b8:	0501                	addi	a0,a0,0
  ba:	01030a03          	lb	s4,16(t1)
  be:	0409                	addi	s0,s0,2
  c0:	0100                	addi	s0,sp,128
  c2:	030a                	slli	t1,t1,0x2
  c4:	0905                	addi	s2,s2,1
  c6:	001e                	c.slli	zero,0x7
  c8:	0501                	addi	a0,a0,0
  ca:	0300                	addi	s0,sp,384
  cc:	00460927          	0x460927
  d0:	0501                	addi	a0,a0,0
  d2:	0a15                	addi	s4,s4,5
  d4:	06090203          	lb	tp,96(s2)
  d8:	0100                	addi	s0,sp,128
  da:	08090103          	lb	sp,128(s2)
  de:	0100                	addi	s0,sp,128
  e0:	1005                	c.nop	-31
  e2:	0306                	slli	t1,t1,0x1
  e4:	0900                	addi	s0,sp,144
  e6:	0004                	0x4
  e8:	0501                	addi	a0,a0,0
  ea:	0614                	addi	a3,sp,768
  ec:	04090203          	lb	tp,64(s2)
  f0:	0100                	addi	s0,sp,128
  f2:	1005                	c.nop	-31
  f4:	08097e03          	0x8097e03
  f8:	0100                	addi	s0,sp,128
  fa:	0905                	addi	s2,s2,1
  fc:	04090203          	lb	tp,64(s2)
 100:	0100                	addi	s0,sp,128
 102:	0705                	addi	a4,a4,1
 104:	04090103          	lb	sp,64(s2)
 108:	0100                	addi	s0,sp,128
 10a:	0505                	addi	a0,a0,1
 10c:	1e090203          	lb	tp,480(s2)
 110:	0100                	addi	s0,sp,128
 112:	0c090103          	lb	sp,192(s2)
 116:	0100                	addi	s0,sp,128
 118:	0b06                	slli	s6,s6,0x1
 11a:	06090003          	lb	zero,96(s2)
 11e:	0100                	addi	s0,sp,128
 120:	0005                	c.nop	1
 122:	0306                	slli	t1,t1,0x1
 124:	00040917          	auipc	s2,0x40
 128:	0501                	addi	a0,a0,0
 12a:	05030a07          	0x5030a07
 12e:	1009                	c.nop	-30
 130:	0100                	addi	s0,sp,128
 132:	04090103          	lb	sp,64(s2) # 40164 <_binary_shell_bin_size+0x2fe44>
 136:	0100                	addi	s0,sp,128
 138:	0306                	slli	t1,t1,0x1
 13a:	20097ea7          	vsseg2e.v	v29,(s2),v0.t
 13e:	0100                	addi	s0,sp,128
 140:	0805                	addi	a6,a6,1
 142:	0306                	slli	t1,t1,0x1
 144:	040901db          	0x40901db
 148:	0100                	addi	s0,sp,128
 14a:	0705                	addi	a4,a4,1
 14c:	0306                	slli	t1,t1,0x1
 14e:	0900                	addi	s0,sp,144
 150:	0002                	c.slli64	zero
 152:	0601                	addi	a2,a2,0
 154:	02090103          	lb	sp,32(s2)
 158:	0100                	addi	s0,sp,128
 15a:	0005                	c.nop	1
 15c:	0306                	slli	t1,t1,0x1
 15e:	7ea4                	ld	s1,120(a3)
 160:	2009                	0x2009
 162:	0100                	addi	s0,sp,128
 164:	0805                	addi	a6,a6,1
 166:	0306                	slli	t1,t1,0x1
 168:	01df 0609 0100      	0x100060901df
 16e:	2305                	addiw	t1,t1,1
 170:	0306                	slli	t1,t1,0x1
 172:	0900                	addi	s0,sp,144
 174:	0008                	0x8
 176:	0501                	addi	a0,a0,0
 178:	09000307          	vlsbu.v	v6,(zero),a6,v0.t
 17c:	0004                	0x4
 17e:	0501                	addi	a0,a0,0
 180:	0615                	addi	a2,a2,5
 182:	02095603          	lhu	a2,32(s2)
 186:	0100                	addi	s0,sp,128
 188:	0306                	slli	t1,t1,0x1
 18a:	08097ecb          	fnmsub.s	ft9,fs2,ft0,ft1
 18e:	0100                	addi	s0,sp,128
 190:	1005                	c.nop	-31
 192:	0306                	slli	t1,t1,0x1
 194:	01b6                	slli	gp,gp,0xd
 196:	0209                	addi	tp,tp,2
 198:	0100                	addi	s0,sp,128
 19a:	1405                	addi	s0,s0,-31
 19c:	02090203          	lb	tp,32(s2)
 1a0:	0100                	addi	s0,sp,128
 1a2:	1005                	c.nop	-31
 1a4:	08097e03          	0x8097e03
 1a8:	0100                	addi	s0,sp,128
 1aa:	0905                	addi	s2,s2,1
 1ac:	04090203          	lb	tp,64(s2)
 1b0:	0100                	addi	s0,sp,128
 1b2:	0705                	addi	a4,a4,1
 1b4:	04090103          	lb	sp,64(s2)
 1b8:	0100                	addi	s0,sp,128
 1ba:	0306                	slli	t1,t1,0x1
 1bc:	1e097ec7          	fmsub.q	ft9,fs2,ft0,ft3
 1c0:	0100                	addi	s0,sp,128
 1c2:	0505                	addi	a0,a0,1
 1c4:	0306                	slli	t1,t1,0x1
 1c6:	020901bb          	mulw	gp,s2,zero
 1ca:	0100                	addi	s0,sp,128
 1cc:	0306                	slli	t1,t1,0x1
 1ce:	7ec5                	lui	t4,0xffff1
 1d0:	1009                	c.nop	-30
 1d2:	0100                	addi	s0,sp,128
 1d4:	2705                	addiw	a4,a4,1
 1d6:	0306                	slli	t1,t1,0x1
 1d8:	01e1                	addi	gp,gp,24
 1da:	0409                	addi	s0,s0,2
 1dc:	0100                	addi	s0,sp,128
 1de:	2e05                	addiw	t3,t3,1
 1e0:	0306                	slli	t1,t1,0x1
 1e2:	0900                	addi	s0,sp,144
 1e4:	0006                	c.slli	zero,0x1
 1e6:	0501                	addi	a0,a0,0
 1e8:	0318                	addi	a4,sp,384
 1ea:	0900                	addi	s0,sp,144
 1ec:	0002                	c.slli64	zero
 1ee:	0501                	addi	a0,a0,0
 1f0:	0300                	addi	s0,sp,384
 1f2:	7e9f 0209 0100      	0x10002097e9f
 1f8:	3d05                	addiw	s10,s10,-31
 1fa:	0306                	slli	t1,t1,0x1
 1fc:	060901e3          	beqz	s2,a5e <$d.10+0xd7>
 200:	0100                	addi	s0,sp,128
 202:	0805                	addi	a6,a6,1
 204:	04090303          	lb	t1,64(s2)
 208:	0100                	addi	s0,sp,128
 20a:	1f05                	addi	t5,t5,-31
 20c:	0306                	slli	t1,t1,0x1
 20e:	0900                	addi	s0,sp,144
 210:	0008                	0x8
 212:	0501                	addi	a0,a0,0
 214:	09000307          	vlsbu.v	v6,(zero),a6,v0.t
 218:	0004                	0x4
 21a:	0501                	addi	a0,a0,0
 21c:	0615                	addi	a2,a2,5
 21e:	02094f03          	lbu	t5,32(s2)
 222:	0100                	addi	s0,sp,128
 224:	0306                	slli	t1,t1,0x1
 226:	08097ecb          	fnmsub.s	ft9,fs2,ft0,ft1
 22a:	0100                	addi	s0,sp,128
 22c:	1005                	c.nop	-31
 22e:	0306                	slli	t1,t1,0x1
 230:	01b6                	slli	gp,gp,0xd
 232:	0209                	addi	tp,tp,2
 234:	0100                	addi	s0,sp,128
 236:	1405                	addi	s0,s0,-31
 238:	02090203          	lb	tp,32(s2)
 23c:	0100                	addi	s0,sp,128
 23e:	1005                	c.nop	-31
 240:	08097e03          	0x8097e03
 244:	0100                	addi	s0,sp,128
 246:	0905                	addi	s2,s2,1
 248:	04090203          	lb	tp,64(s2)
 24c:	0100                	addi	s0,sp,128
 24e:	0705                	addi	a4,a4,1
 250:	04090103          	lb	sp,64(s2)
 254:	0100                	addi	s0,sp,128
 256:	0306                	slli	t1,t1,0x1
 258:	1e097ec7          	fmsub.q	ft9,fs2,ft0,ft3
 25c:	0100                	addi	s0,sp,128
 25e:	0505                	addi	a0,a0,1
 260:	0306                	slli	t1,t1,0x1
 262:	020901bb          	mulw	gp,s2,zero
 266:	0100                	addi	s0,sp,128
 268:	0306                	slli	t1,t1,0x1
 26a:	7ec5                	lui	t4,0xffff1
 26c:	1009                	c.nop	-30
 26e:	0100                	addi	s0,sp,128
 270:	2305                	addiw	t1,t1,1
 272:	0306                	slli	t1,t1,0x1
 274:	01e8                	addi	a0,sp,204
 276:	0409                	addi	s0,s0,2
 278:	0100                	addi	s0,sp,128
 27a:	2a05                	addiw	s4,s4,1
 27c:	0306                	slli	t1,t1,0x1
 27e:	0900                	addi	s0,sp,144
 280:	0006                	c.slli	zero,0x1
 282:	0501                	addi	a0,a0,0
 284:	0314                	addi	a3,sp,384
 286:	0900                	addi	s0,sp,144
 288:	0002                	c.slli64	zero
 28a:	0501                	addi	a0,a0,0
 28c:	0639                	addi	a2,a2,14
 28e:	02090203          	lb	tp,32(s2)
 292:	0100                	addi	s0,sp,128
 294:	1a05                	addi	s4,s4,-31
 296:	04090303          	lb	t1,64(s2)
 29a:	0100                	addi	s0,sp,128
 29c:	3005                	0x3005
 29e:	0306                	slli	t1,t1,0x1
 2a0:	0900                	addi	s0,sp,144
 2a2:	0002                	c.slli64	zero
 2a4:	0501                	addi	a0,a0,0
 2a6:	09000303          	lb	t1,144(zero) # 90 <$d.14+0x90>
 2aa:	0006                	c.slli	zero,0x1
 2ac:	0301                	addi	t1,t1,0
 2ae:	02097e93          	andi	t4,s2,32
 2b2:	0100                	addi	s0,sp,128
 2b4:	0901ed03          	lwu	s10,144(gp) # 90 <$d.14+0x90>
 2b8:	0004                	0x4
 2ba:	0501                	addi	a0,a0,0
 2bc:	0310                	addi	a2,sp,384
 2be:	0900                	addi	s0,sp,144
 2c0:	0004                	0x4
 2c2:	0501                	addi	a0,a0,0
 2c4:	0601                	addi	a2,a2,0
 2c6:	0901030b          	0x901030b
 2ca:	000e                	c.slli	zero,0x3
 2cc:	0501                	addi	a0,a0,0
 2ce:	0300                	addi	s0,sp,384
 2d0:	00040907          	vlbu.v	v18,(s0),v0.t
 2d4:	0501                	addi	a0,a0,0
 2d6:	01030a03          	lb	s4,16(t1)
 2da:	0809                	addi	a6,a6,2
 2dc:	0100                	addi	s0,sp,128
 2de:	0005                	c.nop	1
 2e0:	0c092503          	lw	a0,192(s2)
 2e4:	0100                	addi	s0,sp,128
 2e6:	1605                	addi	a2,a2,-31
 2e8:	030a                	slli	t1,t1,0x2
 2ea:	0905                	addi	s2,s2,1
 2ec:	001c                	0x1c
 2ee:	0601                	addi	a2,a2,0
 2f0:	097de003          	lwu	zero,151(s11) # 1000097 <_binary_shell_bin_size+0xfefd77>
 2f4:	000e                	c.slli	zero,0x3
 2f6:	0501                	addi	a0,a0,0
 2f8:	030d                	addi	t1,t1,3
 2fa:	02a0                	addi	s0,sp,328
 2fc:	0209                	addi	tp,tp,2
 2fe:	0100                	addi	s0,sp,128
 300:	1605                	addi	a2,a2,-31
 302:	02090003          	lb	zero,32(s2)
 306:	0100                	addi	s0,sp,128
 308:	0d05                	addi	s10,s10,1
 30a:	06090003          	lb	zero,96(s2)
 30e:	0100                	addi	s0,sp,128
 310:	1605                	addi	a2,a2,-31
 312:	02090003          	lb	zero,32(s2)
 316:	0100                	addi	s0,sp,128
 318:	0d05                	addi	s10,s10,1
 31a:	06090003          	lb	zero,96(s2)
 31e:	0100                	addi	s0,sp,128
 320:	1605                	addi	a2,a2,-31
 322:	02090003          	lb	zero,32(s2)
 326:	0100                	addi	s0,sp,128
 328:	0d05                	addi	s10,s10,1
 32a:	06090003          	lb	zero,96(s2)
 32e:	0100                	addi	s0,sp,128
 330:	1605                	addi	a2,a2,-31
 332:	02090003          	lb	zero,32(s2)
 336:	0100                	addi	s0,sp,128
 338:	0d05                	addi	s10,s10,1
 33a:	06090003          	lb	zero,96(s2)
 33e:	0100                	addi	s0,sp,128
 340:	1605                	addi	a2,a2,-31
 342:	02090003          	lb	zero,32(s2)
 346:	0100                	addi	s0,sp,128
 348:	0d05                	addi	s10,s10,1
 34a:	06090003          	lb	zero,96(s2)
 34e:	0100                	addi	s0,sp,128
 350:	1605                	addi	a2,a2,-31
 352:	02090003          	lb	zero,32(s2)
 356:	0100                	addi	s0,sp,128
 358:	0d05                	addi	s10,s10,1
 35a:	08090003          	lb	zero,128(s2)
 35e:	0100                	addi	s0,sp,128
 360:	1605                	addi	a2,a2,-31
 362:	02090003          	lb	zero,32(s2)
 366:	0100                	addi	s0,sp,128
 368:	0d05                	addi	s10,s10,1
 36a:	08090003          	lb	zero,128(s2)
 36e:	0100                	addi	s0,sp,128
 370:	0905                	addi	s2,s2,1
 372:	0306                	slli	t1,t1,0x1
 374:	00020907          	vlbu.v	v18,(tp),v0.t
 378:	0601                	addi	a2,a2,0
 37a:	097dd903          	lhu	s2,151(s11)
 37e:	001e                	c.slli	zero,0x7
 380:	0501                	addi	a0,a0,0
 382:	0606                	slli	a2,a2,0x1
 384:	0902ac03          	lw	s8,144(t0) # 3194475 <_binary_shell_bin_size+0x3184155>
 388:	001e                	c.slli	zero,0x7
 38a:	0501                	addi	a0,a0,0
 38c:	0003060b          	0x3060b
 390:	1009                	c.nop	-30
 392:	0100                	addi	s0,sp,128
 394:	0306                	slli	t1,t1,0x1
 396:	0901                	addi	s2,s2,0
 398:	0004                	0x4
 39a:	0301                	addi	t1,t1,0
 39c:	0901                	addi	s2,s2,0
 39e:	0004                	0x4
 3a0:	0301                	addi	t1,t1,0
 3a2:	0901                	addi	s2,s2,0
 3a4:	0004                	0x4
 3a6:	0301                	addi	t1,t1,0
 3a8:	0901                	addi	s2,s2,0
 3aa:	0004                	0x4
 3ac:	0301                	addi	t1,t1,0
 3ae:	0901                	addi	s2,s2,0
 3b0:	0004                	0x4
 3b2:	0301                	addi	t1,t1,0
 3b4:	0901                	addi	s2,s2,0
 3b6:	0004                	0x4
 3b8:	0301                	addi	t1,t1,0
 3ba:	0901                	addi	s2,s2,0
 3bc:	0004                	0x4
 3be:	0301                	addi	t1,t1,0
 3c0:	0901                	addi	s2,s2,0
 3c2:	0004                	0x4
 3c4:	0301                	addi	t1,t1,0
 3c6:	0901                	addi	s2,s2,0
 3c8:	0004                	0x4
 3ca:	0301                	addi	t1,t1,0
 3cc:	0901                	addi	s2,s2,0
 3ce:	0004                	0x4
 3d0:	0301                	addi	t1,t1,0
 3d2:	0901                	addi	s2,s2,0
 3d4:	0004                	0x4
 3d6:	0501                	addi	a0,a0,0
 3d8:	0306                	slli	t1,t1,0x1
 3da:	0902                	c.slli64	s2
 3dc:	0008                	0x8
 3de:	0501                	addi	a0,a0,0
 3e0:	0003060b          	0x3060b
 3e4:	0409                	addi	s0,s0,2
 3e6:	0100                	addi	s0,sp,128
 3e8:	1505                	addi	a0,a0,-31
 3ea:	0306                	slli	t1,t1,0x1
 3ec:	7efc                	ld	a5,248(a3)
 3ee:	0409                	addi	s0,s0,2
 3f0:	0100                	addi	s0,sp,128
 3f2:	0b05                	addi	s6,s6,1
 3f4:	09018403          	lb	s0,144(gp)
 3f8:	0008                	0x8
 3fa:	0501                	addi	a0,a0,0
 3fc:	0310                	addi	a2,sp,384
 3fe:	7efd                	lui	t4,0xfffff
 400:	0809                	addi	a6,a6,2
 402:	0100                	addi	s0,sp,128
 404:	1405                	addi	s0,s0,-31
 406:	02090203          	lb	tp,32(s2)
 40a:	0100                	addi	s0,sp,128
 40c:	1005                	c.nop	-31
 40e:	08097e03          	0x8097e03
 412:	0100                	addi	s0,sp,128
 414:	0705                	addi	a4,a4,1
 416:	08090303          	lb	t1,128(s2)
 41a:	0100                	addi	s0,sp,128
 41c:	0306                	slli	t1,t1,0x1
 41e:	1e097ec7          	fmsub.q	ft9,fs2,ft0,ft3
 422:	0100                	addi	s0,sp,128
 424:	0505                	addi	a0,a0,1
 426:	0306                	slli	t1,t1,0x1
 428:	040901bb          	0x40901bb
 42c:	0100                	addi	s0,sp,128
 42e:	09018203          	lb	tp,144(gp)
 432:	0010                	0x10
 434:	0501                	addi	a0,a0,0
 436:	0309                	addi	t1,t1,2
 438:	0902                	c.slli64	s2
 43a:	000c                	0xc
 43c:	0501                	addi	a0,a0,0
 43e:	0332                	slli	t1,t1,0xc
 440:	097f                	0x97f
 442:	0010                	0x10
 444:	0501                	addi	a0,a0,0
 446:	0305                	addi	t1,t1,1
 448:	097f                	0x97f
 44a:	0002                	c.slli64	zero
 44c:	0301                	addi	t1,t1,0
 44e:	0905                	addi	s2,s2,1
 450:	0004                	0x4
 452:	0601                	addi	a2,a2,0
 454:	097dbe03          	ld	t3,151(s11)
 458:	0004                	0x4
 45a:	0501                	addi	a0,a0,0
 45c:	cb030623          	sb	a6,-852(t1)
 460:	0902                	c.slli64	s2
 462:	000e                	c.slli	zero,0x3
 464:	0501                	addi	a0,a0,0
 466:	00030607          	vlbu.v	v12,(t1),v0.t
 46a:	0409                	addi	s0,s0,2
 46c:	0100                	addi	s0,sp,128
 46e:	2605                	addiw	a2,a2,1
 470:	0306                	slli	t1,t1,0x1
 472:	0901                	addi	s2,s2,0
 474:	000a                	c.slli	zero,0x2
 476:	0501                	addi	a0,a0,0
 478:	00030607          	vlbu.v	v12,(t1),v0.t
 47c:	0409                	addi	s0,s0,2
 47e:	0100                	addi	s0,sp,128
 480:	3205                	addiw	tp,tp,-31
 482:	0306                	slli	t1,t1,0x1
 484:	0976                	slli	s2,s2,0x1d
 486:	000e                	c.slli	zero,0x3
 488:	0501                	addi	a0,a0,0
 48a:	0620                	addi	s0,sp,776
 48c:	02090003          	lb	zero,32(s2)
 490:	0100                	addi	s0,sp,128
 492:	0505                	addi	a0,a0,1
 494:	08090003          	lb	zero,128(s2)
 498:	0100                	addi	s0,sp,128
 49a:	1505                	addi	a0,a0,-31
 49c:	0306                	slli	t1,t1,0x1
 49e:	04097ef3          	csrrci	t4,uscratch,18
 4a2:	0100                	addi	s0,sp,128
 4a4:	1005                	c.nop	-31
 4a6:	04090103          	lb	sp,64(s2)
 4aa:	0100                	addi	s0,sp,128
 4ac:	0905                	addi	s2,s2,1
 4ae:	08090203          	lb	tp,128(s2)
 4b2:	0100                	addi	s0,sp,128
 4b4:	0505                	addi	a0,a0,1
 4b6:	04090303          	lb	t1,64(s2)
 4ba:	0100                	addi	s0,sp,128
 4bc:	0306                	slli	t1,t1,0x1
 4be:	7ec5                	lui	t4,0xffff1
 4c0:	0e09                	addi	t3,t3,2
 4c2:	0100                	addi	s0,sp,128
 4c4:	1a05                	addi	s4,s4,-31
 4c6:	0306                	slli	t1,t1,0x1
 4c8:	02c8                	addi	a0,sp,324
 4ca:	0209                	addi	tp,tp,2
 4cc:	0100                	addi	s0,sp,128
 4ce:	0306                	slli	t1,t1,0x1
 4d0:	7db8                	ld	a4,120(a1)
 4d2:	0409                	addi	s0,s0,2
 4d4:	0100                	addi	s0,sp,128
 4d6:	0d05                	addi	s10,s10,1
 4d8:	0306                	slli	t1,t1,0x1
 4da:	02a0                	addi	s0,sp,328
 4dc:	0a09                	addi	s4,s4,2
 4de:	0100                	addi	s0,sp,128
 4e0:	1305                	addi	t1,t1,-31
 4e2:	06093103          	ld	sp,96(s2)
 4e6:	0100                	addi	s0,sp,128
 4e8:	0f05                	addi	t5,t5,1
 4ea:	0306                	slli	t1,t1,0x1
 4ec:	0900                	addi	s0,sp,144
 4ee:	0002                	c.slli64	zero
 4f0:	0501                	addi	a0,a0,0
 4f2:	0611                	addi	a2,a2,4
 4f4:	04090103          	lb	sp,64(s2)
 4f8:	0100                	addi	s0,sp,128
 4fa:	0e05                	addi	t3,t3,1
 4fc:	04090103          	lb	sp,64(s2)
 500:	0100                	addi	s0,sp,128
 502:	1605                	addi	a2,a2,-31
 504:	02090103          	lb	sp,32(s2)
 508:	0100                	addi	s0,sp,128
 50a:	0306                	slli	t1,t1,0x1
 50c:	7dac                	ld	a1,120(a1)
 50e:	0c09                	addi	s8,s8,2
 510:	0100                	addi	s0,sp,128
 512:	0505                	addi	a0,a0,1
 514:	0b06                	slli	s6,s6,0x1
 516:	0902d503          	lhu	a0,144(t0)
 51a:	0012                	c.slli	zero,0x4
 51c:	0501                	addi	a0,a0,0
 51e:	7ee40307          	vlxseg4b.v	v6,(s0),v14
 522:	0409                	addi	s0,s0,2
 524:	0100                	addi	s0,sp,128
 526:	0005                	c.nop	1
 528:	09019f03          	lh	t5,144(gp)
 52c:	001e                	c.slli	zero,0x7
 52e:	0501                	addi	a0,a0,0
 530:	0a1c                	addi	a5,sp,272
 532:	0c090203          	lb	tp,192(s2)
 536:	0100                	addi	s0,sp,128
 538:	3f05                	addiw	t5,t5,-31
 53a:	04090203          	lb	tp,64(s2)
 53e:	0100                	addi	s0,sp,128
 540:	1305                	addi	t1,t1,-31
 542:	12090103          	lb	sp,288(s2)
 546:	0100                	addi	s0,sp,128
 548:	1c05                	addi	s8,s8,-31
 54a:	10097d03          	0x10097d03
 54e:	0100                	addi	s0,sp,128
 550:	0306                	slli	t1,t1,0x1
 552:	7da6                	ld	s11,104(sp)
 554:	0409                	addi	s0,s0,2
 556:	0100                	addi	s0,sp,128
 558:	2a05                	addiw	s4,s4,1
 55a:	0306                	slli	t1,t1,0x1
 55c:	02dd                	addi	t0,t0,23
 55e:	0209                	addi	tp,tp,2
 560:	0100                	addi	s0,sp,128
 562:	3305                	addiw	t1,t1,-31
 564:	0306                	slli	t1,t1,0x1
 566:	0900                	addi	s0,sp,144
 568:	0004                	0x4
 56a:	0501                	addi	a0,a0,0
 56c:	030d                	addi	t1,t1,3
 56e:	0900                	addi	s0,sp,144
 570:	0002                	c.slli64	zero
 572:	0501                	addi	a0,a0,0
 574:	063a                	slli	a2,a2,0xe
 576:	04097f03          	0x4097f03
 57a:	0100                	addi	s0,sp,128
 57c:	3f05                	addiw	t5,t5,-31
 57e:	0306                	slli	t1,t1,0x1
 580:	0900                	addi	s0,sp,144
 582:	0004                	0x4
 584:	0501                	addi	a0,a0,0
 586:	01030613          	addi	a2,t1,16
 58a:	1009                	c.nop	-30
 58c:	0100                	addi	s0,sp,128
 58e:	2a05                	addiw	s4,s4,1
 590:	0306                	slli	t1,t1,0x1
 592:	0900                	addi	s0,sp,144
 594:	0008                	0x8
 596:	0301                	addi	t1,t1,0
 598:	04097da3          	0x4097da3
 59c:	0100                	addi	s0,sp,128
 59e:	2105                	addiw	sp,sp,1
 5a0:	0306                	slli	t1,t1,0x1
 5a2:	02dc                	addi	a5,sp,324
 5a4:	0409                	addi	s0,s0,2
 5a6:	0100                	addi	s0,sp,128
 5a8:	3305                	addiw	t1,t1,-31
 5aa:	06090103          	lb	sp,96(s2)
 5ae:	0100                	addi	s0,sp,128
 5b0:	0d05                	addi	s10,s10,1
 5b2:	0306                	slli	t1,t1,0x1
 5b4:	0900                	addi	s0,sp,144
 5b6:	0002                	c.slli64	zero
 5b8:	0501                	addi	a0,a0,0
 5ba:	063a                	slli	a2,a2,0xe
 5bc:	04097f03          	0x4097f03
 5c0:	0100                	addi	s0,sp,128
 5c2:	3f05                	addiw	t5,t5,-31
 5c4:	0306                	slli	t1,t1,0x1
 5c6:	0900                	addi	s0,sp,144
 5c8:	0004                	0x4
 5ca:	0501                	addi	a0,a0,0
 5cc:	01030613          	addi	a2,t1,16
 5d0:	1209                	addi	tp,tp,-30
 5d2:	0100                	addi	s0,sp,128
 5d4:	2a05                	addiw	s4,s4,1
 5d6:	0306                	slli	t1,t1,0x1
 5d8:	0900                	addi	s0,sp,144
 5da:	000a                	c.slli	zero,0x2
 5dc:	0501                	addi	a0,a0,0
 5de:	09000333          	0x9000333
 5e2:	0004                	0x4
 5e4:	0501                	addi	a0,a0,0
 5e6:	030d                	addi	t1,t1,3
 5e8:	0900                	addi	s0,sp,144
 5ea:	0002                	c.slli64	zero
 5ec:	0501                	addi	a0,a0,0
 5ee:	063a                	slli	a2,a2,0xe
 5f0:	04097f03          	0x4097f03
 5f4:	0100                	addi	s0,sp,128
 5f6:	3f05                	addiw	t5,t5,-31
 5f8:	0306                	slli	t1,t1,0x1
 5fa:	0900                	addi	s0,sp,144
 5fc:	0004                	0x4
 5fe:	0501                	addi	a0,a0,0
 600:	01030613          	addi	a2,t1,16
 604:	1009                	c.nop	-30
 606:	0100                	addi	s0,sp,128
 608:	2a05                	addiw	s4,s4,1
 60a:	0306                	slli	t1,t1,0x1
 60c:	0900                	addi	s0,sp,144
 60e:	0008                	0x8
 610:	0301                	addi	t1,t1,0
 612:	04097da3          	0x4097da3
 616:	0100                	addi	s0,sp,128
 618:	2105                	addiw	sp,sp,1
 61a:	0306                	slli	t1,t1,0x1
 61c:	02dc                	addi	a5,sp,324
 61e:	0409                	addi	s0,s0,2
 620:	0100                	addi	s0,sp,128
 622:	3305                	addiw	t1,t1,-31
 624:	06090103          	lb	sp,96(s2)
 628:	0100                	addi	s0,sp,128
 62a:	0d05                	addi	s10,s10,1
 62c:	0306                	slli	t1,t1,0x1
 62e:	0900                	addi	s0,sp,144
 630:	0002                	c.slli64	zero
 632:	0501                	addi	a0,a0,0
 634:	063a                	slli	a2,a2,0xe
 636:	04097f03          	0x4097f03
 63a:	0100                	addi	s0,sp,128
 63c:	3f05                	addiw	t5,t5,-31
 63e:	0306                	slli	t1,t1,0x1
 640:	0900                	addi	s0,sp,144
 642:	0004                	0x4
 644:	0501                	addi	a0,a0,0
 646:	01030613          	addi	a2,t1,16
 64a:	1209                	addi	tp,tp,-30
 64c:	0100                	addi	s0,sp,128
 64e:	2a05                	addiw	s4,s4,1
 650:	0306                	slli	t1,t1,0x1
 652:	0900                	addi	s0,sp,144
 654:	000a                	c.slli	zero,0x2
 656:	0501                	addi	a0,a0,0
 658:	09000333          	0x9000333
 65c:	0004                	0x4
 65e:	0501                	addi	a0,a0,0
 660:	030d                	addi	t1,t1,3
 662:	0900                	addi	s0,sp,144
 664:	0002                	c.slli64	zero
 666:	0501                	addi	a0,a0,0
 668:	063a                	slli	a2,a2,0xe
 66a:	04097f03          	0x4097f03
 66e:	0100                	addi	s0,sp,128
 670:	3f05                	addiw	t5,t5,-31
 672:	0306                	slli	t1,t1,0x1
 674:	0900                	addi	s0,sp,144
 676:	0004                	0x4
 678:	0501                	addi	a0,a0,0
 67a:	01030613          	addi	a2,t1,16
 67e:	1009                	c.nop	-30
 680:	0100                	addi	s0,sp,128
 682:	2a05                	addiw	s4,s4,1
 684:	0306                	slli	t1,t1,0x1
 686:	0900                	addi	s0,sp,144
 688:	0008                	0x8
 68a:	0301                	addi	t1,t1,0
 68c:	04097da3          	0x4097da3
 690:	0100                	addi	s0,sp,128
 692:	2105                	addiw	sp,sp,1
 694:	0306                	slli	t1,t1,0x1
 696:	02dc                	addi	a5,sp,324
 698:	0409                	addi	s0,s0,2
 69a:	0100                	addi	s0,sp,128
 69c:	3305                	addiw	t1,t1,-31
 69e:	06090103          	lb	sp,96(s2)
 6a2:	0100                	addi	s0,sp,128
 6a4:	0d05                	addi	s10,s10,1
 6a6:	0306                	slli	t1,t1,0x1
 6a8:	0900                	addi	s0,sp,144
 6aa:	0002                	c.slli64	zero
 6ac:	0501                	addi	a0,a0,0
 6ae:	063a                	slli	a2,a2,0xe
 6b0:	04097f03          	0x4097f03
 6b4:	0100                	addi	s0,sp,128
 6b6:	3f05                	addiw	t5,t5,-31
 6b8:	0306                	slli	t1,t1,0x1
 6ba:	0900                	addi	s0,sp,144
 6bc:	0004                	0x4
 6be:	0501                	addi	a0,a0,0
 6c0:	01030613          	addi	a2,t1,16
 6c4:	1209                	addi	tp,tp,-30
 6c6:	0100                	addi	s0,sp,128
 6c8:	2a05                	addiw	s4,s4,1
 6ca:	0306                	slli	t1,t1,0x1
 6cc:	0900                	addi	s0,sp,144
 6ce:	000a                	c.slli	zero,0x2
 6d0:	0501                	addi	a0,a0,0
 6d2:	09000333          	0x9000333
 6d6:	0004                	0x4
 6d8:	0501                	addi	a0,a0,0
 6da:	030d                	addi	t1,t1,3
 6dc:	0900                	addi	s0,sp,144
 6de:	0002                	c.slli64	zero
 6e0:	0501                	addi	a0,a0,0
 6e2:	063a                	slli	a2,a2,0xe
 6e4:	04097f03          	0x4097f03
 6e8:	0100                	addi	s0,sp,128
 6ea:	3f05                	addiw	t5,t5,-31
 6ec:	0306                	slli	t1,t1,0x1
 6ee:	0900                	addi	s0,sp,144
 6f0:	0002                	c.slli64	zero
 6f2:	0501                	addi	a0,a0,0
 6f4:	01030613          	addi	a2,t1,16
 6f8:	0e09                	addi	t3,t3,2
 6fa:	0100                	addi	s0,sp,128
 6fc:	2a05                	addiw	s4,s4,1
 6fe:	0306                	slli	t1,t1,0x1
 700:	0900                	addi	s0,sp,144
 702:	0008                	0x8
 704:	0301                	addi	t1,t1,0
 706:	04097da3          	0x4097da3
 70a:	0100                	addi	s0,sp,128
 70c:	2105                	addiw	sp,sp,1
 70e:	0306                	slli	t1,t1,0x1
 710:	02dc                	addi	a5,sp,324
 712:	0409                	addi	s0,s0,2
 714:	0100                	addi	s0,sp,128
 716:	3305                	addiw	t1,t1,-31
 718:	06090103          	lb	sp,96(s2)
 71c:	0100                	addi	s0,sp,128
 71e:	0d05                	addi	s10,s10,1
 720:	0306                	slli	t1,t1,0x1
 722:	0900                	addi	s0,sp,144
 724:	0002                	c.slli64	zero
 726:	0301                	addi	t1,t1,0
 728:	04097da3          	0x4097da3
 72c:	0100                	addi	s0,sp,128
 72e:	0905                	addi	s2,s2,1
 730:	0306                	slli	t1,t1,0x1
 732:	02e4                	addi	s1,sp,332
 734:	0209                	addi	tp,tp,2
 736:	0100                	addi	s0,sp,128
 738:	3505                	addiw	a0,a0,-31
 73a:	04090903          	lb	s2,64(s2)
 73e:	0100                	addi	s0,sp,128
 740:	4005                	c.li	zero,1
 742:	0306                	slli	t1,t1,0x1
 744:	0900                	addi	s0,sp,144
 746:	0002                	c.slli64	zero
 748:	0501                	addi	a0,a0,0
 74a:	0321                	addi	t1,t1,8
 74c:	0900                	addi	s0,sp,144
 74e:	0006                	c.slli	zero,0x1
 750:	0501                	addi	a0,a0,0
 752:	0625                	addi	a2,a2,9
 754:	06090103          	lb	sp,96(s2)
 758:	0100                	addi	s0,sp,128
 75a:	0505                	addi	a0,a0,1
 75c:	02097903          	0x2097903
 760:	0100                	addi	s0,sp,128
 762:	1c05                	addi	s8,s8,-31
 764:	10090b03          	lb	s6,256(s2)
 768:	0100                	addi	s0,sp,128
 76a:	1b05                	addi	s6,s6,-31
 76c:	04090203          	lb	tp,64(s2)
 770:	0100                	addi	s0,sp,128
 772:	2605                	addiw	a2,a2,1
 774:	0306                	slli	t1,t1,0x1
 776:	0900                	addi	s0,sp,144
 778:	0002                	c.slli64	zero
 77a:	0501                	addi	a0,a0,0
 77c:	0612                	slli	a2,a2,0x4
 77e:	04097f03          	0x4097f03
 782:	0100                	addi	s0,sp,128
 784:	0505                	addi	a0,a0,1
 786:	04090103          	lb	sp,64(s2)
 78a:	0100                	addi	s0,sp,128
 78c:	0105                	addi	sp,sp,1
 78e:	08090103          	lb	sp,128(s2)
 792:	0100                	addi	s0,sp,128
 794:	0005                	c.nop	1
 796:	02090203          	lb	tp,32(s2)
 79a:	0100                	addi	s0,sp,128
 79c:	1705                	addi	a4,a4,-31
 79e:	030a                	slli	t1,t1,0x2
 7a0:	0901                	addi	s2,s2,0
 7a2:	0008                	0x8
 7a4:	0501                	addi	a0,a0,0
 7a6:	0309                	addi	t1,t1,2
 7a8:	0901                	addi	s2,s2,0
 7aa:	0002                	c.slli64	zero
 7ac:	0501                	addi	a0,a0,0
 7ae:	0305                	addi	t1,t1,1
 7b0:	097f                	0x97f
 7b2:	0002                	c.slli64	zero
 7b4:	0501                	addi	a0,a0,0
 7b6:	0301                	addi	t1,t1,0
 7b8:	0902                	c.slli64	s2
 7ba:	0002                	c.slli64	zero
 7bc:	0501                	addi	a0,a0,0
 7be:	0300                	addi	s0,sp,384
 7c0:	0905                	addi	s2,s2,1
 7c2:	0002                	c.slli64	zero
 7c4:	0501                	addi	a0,a0,0
 7c6:	0a05                	addi	s4,s4,1
 7c8:	06090103          	lb	sp,96(s2)
 7cc:	0100                	addi	s0,sp,128
 7ce:	0306                	slli	t1,t1,0x1
 7d0:	7d80                	ld	s0,56(a1)
 7d2:	1009                	c.nop	-30
 7d4:	0100                	addi	s0,sp,128
 7d6:	0305                	addi	t1,t1,1
 7d8:	0306                	slli	t1,t1,0x1
 7da:	0926                	slli	s2,s2,0x9
 7dc:	0008                	0x8
 7de:	0501                	addi	a0,a0,0
 7e0:	0309                	addi	t1,t1,2
 7e2:	02dd                	addi	t0,t0,23
 7e4:	1609                	addi	a2,a2,-30
 7e6:	0100                	addi	s0,sp,128
 7e8:	0306                	slli	t1,t1,0x1
 7ea:	7cfd                	lui	s9,0xfffff
 7ec:	0809                	addi	a6,a6,2
 7ee:	0100                	addi	s0,sp,128
 7f0:	1705                	addi	a4,a4,-31
 7f2:	0306                	slli	t1,t1,0x1
 7f4:	02f8                	addi	a4,sp,332
 7f6:	0209                	addi	tp,tp,2
 7f8:	0100                	addi	s0,sp,128
 7fa:	0905                	addi	s2,s2,1
 7fc:	02090103          	lb	sp,32(s2)
 800:	0100                	addi	s0,sp,128
 802:	0505                	addi	a0,a0,1
 804:	02097f03          	0x2097f03
 808:	0100                	addi	s0,sp,128
 80a:	0005                	c.nop	1
 80c:	04091003          	lh	zero,64(s2)
 810:	0100                	addi	s0,sp,128
 812:	0505                	addi	a0,a0,1
 814:	030a                	slli	t1,t1,0x2
 816:	0901                	addi	s2,s2,0
 818:	0006                	c.slli	zero,0x1
 81a:	0601                	addi	a2,a2,0
 81c:	097cf703          	0x97cf703
 820:	0010                	0x10
 822:	0501                	addi	a0,a0,0
 824:	26030603          	lb	a2,608(t1)
 828:	0809                	addi	a6,a6,2
 82a:	0100                	addi	s0,sp,128
 82c:	0905                	addi	s2,s2,1
 82e:	0902e603          	lwu	a2,144(t0)
 832:	0016                	c.slli	zero,0x5
 834:	0601                	addi	a2,a2,0
 836:	097cf403          	0x97cf403
 83a:	0008                	0x8
 83c:	0501                	addi	a0,a0,0
 83e:	f8030617          	auipc	a2,0xf8030
 842:	0902                	c.slli64	s2
 844:	0002                	c.slli64	zero
 846:	0501                	addi	a0,a0,0
 848:	0309                	addi	t1,t1,2
 84a:	0901                	addi	s2,s2,0
 84c:	0002                	c.slli64	zero
 84e:	0501                	addi	a0,a0,0
 850:	0305                	addi	t1,t1,1
 852:	097f                	0x97f
 854:	0002                	c.slli64	zero
 856:	0501                	addi	a0,a0,0
 858:	0a0e                	slli	s4,s4,0x3
 85a:	04091b03          	lh	s6,64(s2)
 85e:	0100                	addi	s0,sp,128
 860:	0305                	addi	t1,t1,1
 862:	0306                	slli	t1,t1,0x1
 864:	0900                	addi	s0,sp,144
 866:	0040                	addi	s0,sp,4
 868:	0501                	addi	a0,a0,0
 86a:	0614                	addi	a3,sp,768
 86c:	04090203          	lb	tp,64(s2)
 870:	0100                	addi	s0,sp,128
 872:	0305                	addi	t1,t1,1
 874:	097d9103          	lh	sp,151(s11)
 878:	0004                	0x4
 87a:	0501                	addi	a0,a0,0
 87c:	0301                	addi	t1,t1,0
 87e:	02fe                	slli	t0,t0,0x1f
 880:	1209                	addi	tp,tp,-30
 882:	0100                	addi	s0,sp,128
 884:	0905                	addi	s2,s2,1
 886:	06097e03          	0x6097e03
 88a:	0100                	addi	s0,sp,128
 88c:	0306                	slli	t1,t1,0x1
 88e:	7cde                	ld	s9,496(sp)
 890:	1c09                	addi	s8,s8,-30
 892:	0100                	addi	s0,sp,128
 894:	0903a203          	lw	tp,144(t2) # 12e2 <$d.2+0x159>
 898:	0004                	0x4
 89a:	0501                	addi	a0,a0,0
 89c:	0600                	addi	s0,sp,768
 89e:	02090503          	lb	a0,32(s2)
 8a2:	0100                	addi	s0,sp,128
 8a4:	1505                	addi	a0,a0,-31
 8a6:	030a                	slli	t1,t1,0x2
 8a8:	0901                	addi	s2,s2,0
 8aa:	0004                	0x4
 8ac:	0501                	addi	a0,a0,0
 8ae:	0314                	addi	a3,sp,384
 8b0:	0901                	addi	s2,s2,0
 8b2:	0004                	0x4
 8b4:	0601                	addi	a2,a2,0
 8b6:	097cd703          	lhu	a4,151(s9) # fffffffffffff097 <__free_ram_end+0xffffffff7bdbd097>
 8ba:	0004                	0x4
 8bc:	0501                	addi	a0,a0,0
 8be:	0616                	slli	a2,a2,0x5
 8c0:	0903aa03          	lw	s4,144(t2)
 8c4:	0002                	c.slli64	zero
 8c6:	0501                	addi	a0,a0,0
 8c8:	09020307          	vlsbu.v	v6,(tp),a6,v0.t
 8cc:	0004                	0x4
 8ce:	0501                	addi	a0,a0,0
 8d0:	030e                	slli	t1,t1,0x3
 8d2:	00040967          	jalr	s2,s0
 8d6:	0501                	addi	a0,a0,0
 8d8:	00030603          	lb	a2,0(t1)
 8dc:	4009                	c.li	zero,2
 8de:	0100                	addi	s0,sp,128
 8e0:	1405                	addi	s0,s0,-31
 8e2:	0306                	slli	t1,t1,0x1
 8e4:	0902                	c.slli64	s2
 8e6:	0004                	0x4
 8e8:	0501                	addi	a0,a0,0
 8ea:	7d910303          	lb	t1,2009(sp)
 8ee:	0409                	addi	s0,s0,2
 8f0:	0100                	addi	s0,sp,128
 8f2:	0f05                	addi	t5,t5,1
 8f4:	09038803          	lb	a6,144(t2)
 8f8:	0012                	c.slli	zero,0x4
 8fa:	0501                	addi	a0,a0,0
 8fc:	09050303          	lb	t1,144(a0) # c090 <$d.2+0xaf07>
 900:	0002                	c.slli64	zero
 902:	0501                	addi	a0,a0,0
 904:	0b01                	addi	s6,s6,0
 906:	06090203          	lb	tp,96(s2)
 90a:	0100                	addi	s0,sp,128
 90c:	0705                	addi	a4,a4,1
 90e:	04097b03          	0x4097b03
 912:	0100                	addi	s0,sp,128
 914:	0905                	addi	s2,s2,1
 916:	20097203          	0x20097203
 91a:	0100                	addi	s0,sp,128
 91c:	0005                	c.nop	1
 91e:	1e091803          	lh	a6,480(s2)
 922:	0100                	addi	s0,sp,128
 924:	0305                	addi	t1,t1,1
 926:	030a                	slli	t1,t1,0x2
 928:	0901                	addi	s2,s2,0
 92a:	0004                	0x4
 92c:	0301                	addi	t1,t1,0
 92e:	0902                	c.slli64	s2
 930:	001c                	0x1c
 932:	0501                	addi	a0,a0,0
 934:	0311                	addi	t1,t1,4
 936:	0910                	addi	a2,sp,144
 938:	000c                	0xc
 93a:	0501                	addi	a0,a0,0
 93c:	0003060f          	0x3060f
 940:	0c09                	addi	s8,s8,2
 942:	0100                	addi	s0,sp,128
 944:	1405                	addi	s0,s0,-31
 946:	0306                	slli	t1,t1,0x1
 948:	0901                	addi	s2,s2,0
 94a:	0008                	0x8
 94c:	0501                	addi	a0,a0,0
 94e:	0312                	slli	t1,t1,0x4
 950:	0901                	addi	s2,s2,0
 952:	0004                	0x4
 954:	0501                	addi	a0,a0,0
 956:	0305                	addi	t1,t1,1
 958:	0909                	addi	s2,s2,2
 95a:	0008                	0x8
 95c:	0301                	addi	t1,t1,0
 95e:	0902                	c.slli64	s2
 960:	001a                	c.slli	zero,0x6
 962:	0301                	addi	t1,t1,0
 964:	0901                	addi	s2,s2,0
 966:	0008                	0x8
 968:	0901                	addi	s2,s2,0
 96a:	001e                	c.slli	zero,0x7
 96c:	0100                	addi	s0,sp,128
 96e:	0501                	addi	a0,a0,0
 970:	09000a03          	lb	s4,144(zero) # 90 <$d.14+0x90>
 974:	0002                	c.slli64	zero
 976:	2000                	fld	fs0,0(s0)
 978:	0080                	addi	s0,sp,64
 97a:	0000                	unimp
 97c:	0300                	addi	s0,sp,384
 97e:	03e0                	addi	s0,sp,460
 980:	0901                	addi	s2,s2,0
 982:	000e                	c.slli	zero,0x3
 984:	0100                	addi	s0,sp,128
 986:	                	j	886 <$d.3+0x561>

0000000000000987 <$d.10>:
 987:	000003b7          	lui	t2,0x0
 98b:	0004                	0x4
 98d:	002e                	c.slli	zero,0xb
 98f:	0000                	unimp
 991:	0101                	addi	sp,sp,0
 993:	fb01                	bnez	a4,8a3 <$d.3+0x57e>
 995:	0d0e                	slli	s10,s10,0x3
 997:	0100                	addi	s0,sp,128
 999:	0101                	addi	sp,sp,0
 99b:	0001                	nop
 99d:	0000                	unimp
 99f:	0001                	nop
 9a1:	0100                	addi	s0,sp,128
 9a3:	002e                	c.slli	zero,0xb
 9a5:	6300                	ld	s0,0(a4)
 9a7:	6f6d6d6f          	jal	s10,d709d <_binary_shell_bin_size+0xc6d7d>
 9ab:	2e6e                	fld	ft8,216(sp)
 9ad:	00000063          	beqz	zero,9ad <$d.10+0x26>
 9b1:	6300                	ld	s0,0(a4)
 9b3:	6f6d6d6f          	jal	s10,d70a9 <_binary_shell_bin_size+0xc6d89>
 9b7:	2e6e                	fld	ft8,216(sp)
 9b9:	0068                	addi	a0,sp,12
 9bb:	0001                	nop
 9bd:	0000                	unimp
 9bf:	0505                	addi	a0,a0,1
 9c1:	000a                	c.slli	zero,0x2
 9c3:	0209                	addi	tp,tp,2
 9c5:	095c                	addi	a5,sp,148
 9c7:	8020                	0x8020
 9c9:	0000                	unimp
 9cb:	0000                	unimp
 9cd:	0616                	slli	a2,a2,0x5
 9cf:	04097b03          	0x4097b03
 9d3:	0100                	addi	s0,sp,128
 9d5:	0b05                	addi	s6,s6,1
 9d7:	0306                	slli	t1,t1,0x1
 9d9:	0906                	slli	s2,s2,0x1
 9db:	0002                	c.slli64	zero
 9dd:	0501                	addi	a0,a0,0
 9df:	060e                	slli	a2,a2,0x3
 9e1:	04090003          	lb	zero,64(s2)
 9e5:	0100                	addi	s0,sp,128
 9e7:	04097a03          	0x4097a03
 9eb:	0100                	addi	s0,sp,128
 9ed:	0505                	addi	a0,a0,1
 9ef:	0306                	slli	t1,t1,0x1
 9f1:	0905                	addi	s2,s2,1
 9f3:	0002                	c.slli64	zero
 9f5:	0301                	addi	t1,t1,0
 9f7:	0902                	c.slli64	s2
 9f9:	0004                	0x4
 9fb:	0a01                	addi	s4,s4,0
 9fd:	02090603          	lb	a2,32(s2)
 a01:	0100                	addi	s0,sp,128
 a03:	0306                	slli	t1,t1,0x1
 a05:	00040973          	0x40973
 a09:	0501                	addi	a0,a0,0
 a0b:	0610                	addi	a2,sp,768
 a0d:	02090e03          	lb	t3,32(s2)
 a11:	0100                	addi	s0,sp,128
 a13:	1205                	addi	tp,tp,-31
 a15:	0306                	slli	t1,t1,0x1
 a17:	0900                	addi	s0,sp,144
 a19:	0004                	0x4
 a1b:	0501                	addi	a0,a0,0
 a1d:	0900030b          	0x900030b
 a21:	0002                	c.slli64	zero
 a23:	0501                	addi	a0,a0,0
 a25:	030e                	slli	t1,t1,0x3
 a27:	0900                	addi	s0,sp,144
 a29:	0004                	0x4
 a2b:	0301                	addi	t1,t1,0
 a2d:	0972                	slli	s2,s2,0x1c
 a2f:	0004                	0x4
 a31:	0501                	addi	a0,a0,0
 a33:	0605                	addi	a2,a2,1
 a35:	02090d03          	lb	s10,32(s2)
 a39:	0100                	addi	s0,sp,128
 a3b:	04090203          	lb	tp,64(s2)
 a3f:	0100                	addi	s0,sp,128
 a41:	0c05                	addi	s8,s8,1
 a43:	030a                	slli	t1,t1,0x2
 a45:	0905                	addi	s2,s2,1
 a47:	0002                	c.slli64	zero
 a49:	0501                	addi	a0,a0,0
 a4b:	0605                	addi	a2,a2,1
 a4d:	06090003          	lb	zero,96(s2)
 a51:	0100                	addi	s0,sp,128
 a53:	04096c03          	lwu	s8,64(s2)
 a57:	0100                	addi	s0,sp,128
 a59:	0e05                	addi	t3,t3,1
 a5b:	0306                	slli	t1,t1,0x1
 a5d:	0915                	addi	s2,s2,5
 a5f:	0002                	c.slli64	zero
 a61:	0501                	addi	a0,a0,0
 a63:	030c                	addi	a1,sp,384
 a65:	097f                	0x97f
 a67:	0004                	0x4
 a69:	0501                	addi	a0,a0,0
 a6b:	0901030b          	0x901030b
 a6f:	0004                	0x4
 a71:	0501                	addi	a0,a0,0
 a73:	0305                	addi	t1,t1,1
 a75:	097f                	0x97f
 a77:	0004                	0x4
 a79:	0601                	addi	a2,a2,0
 a7b:	02096c03          	lwu	s8,32(s2)
 a7f:	0100                	addi	s0,sp,128
 a81:	02091403          	lh	s0,32(s2)
 a85:	0100                	addi	s0,sp,128
 a87:	0805                	addi	a6,a6,1
 a89:	0306                	slli	t1,t1,0x1
 a8b:	0902                	c.slli64	s2
 a8d:	0002                	c.slli64	zero
 a8f:	0501                	addi	a0,a0,0
 a91:	0305                	addi	t1,t1,1
 a93:	0901                	addi	s2,s2,0
 a95:	0004                	0x4
 a97:	0501                	addi	a0,a0,0
 a99:	0a0c                	addi	a1,sp,272
 a9b:	02090403          	lb	s0,32(s2)
 a9f:	0100                	addi	s0,sp,128
 aa1:	1005                	c.nop	-31
 aa3:	0306                	slli	t1,t1,0x1
 aa5:	0900                	addi	s0,sp,144
 aa7:	0004                	0x4
 aa9:	0501                	addi	a0,a0,0
 aab:	0305                	addi	t1,t1,1
 aad:	0900                	addi	s0,sp,144
 aaf:	0002                	c.slli64	zero
 ab1:	0501                	addi	a0,a0,0
 ab3:	09000313          	li	t1,144
 ab7:	0002                	c.slli64	zero
 ab9:	0501                	addi	a0,a0,0
 abb:	0305                	addi	t1,t1,1
 abd:	0900                	addi	s0,sp,144
 abf:	0008                	0x8
 ac1:	0501                	addi	a0,a0,0
 ac3:	030c                	addi	a1,sp,384
 ac5:	0900                	addi	s0,sp,144
 ac7:	0004                	0x4
 ac9:	0501                	addi	a0,a0,0
 acb:	0403060b          	0x403060b
 acf:	0409                	addi	s0,s0,2
 ad1:	0100                	addi	s0,sp,128
 ad3:	1005                	c.nop	-31
 ad5:	02097c03          	0x2097c03
 ad9:	0100                	addi	s0,sp,128
 adb:	0c05                	addi	s8,s8,1
 add:	04090703          	lb	a4,64(s2)
 ae1:	0100                	addi	s0,sp,128
 ae3:	0306                	slli	t1,t1,0x1
 ae5:	095e                	slli	s2,s2,0x17
 ae7:	0006                	c.slli	zero,0x1
 ae9:	0501                	addi	a0,a0,0
 aeb:	09220323          	sb	s2,134(tp) # ffffffffffff9086 <__free_ram_end+0xffffffff7bdb7086>
 aef:	0002                	c.slli64	zero
 af1:	0501                	addi	a0,a0,0
 af3:	0321                	addi	t1,t1,8
 af5:	0900                	addi	s0,sp,144
 af7:	0004                	0x4
 af9:	0501                	addi	a0,a0,0
 afb:	0305                	addi	t1,t1,1
 afd:	0900                	addi	s0,sp,144
 aff:	0002                	c.slli64	zero
 b01:	0501                	addi	a0,a0,0
 b03:	0600                	addi	s0,sp,768
 b05:	02090503          	lb	a0,32(s2)
 b09:	0100                	addi	s0,sp,128
 b0b:	0505                	addi	a0,a0,1
 b0d:	030a                	slli	t1,t1,0x2
 b0f:	0902                	c.slli64	s2
 b11:	002e                	c.slli	zero,0xb
 b13:	0501                	addi	a0,a0,0
 b15:	030d                	addi	t1,t1,3
 b17:	0904                	addi	s1,sp,144
 b19:	002a                	c.slli	zero,0xa
 b1b:	0501                	addi	a0,a0,0
 b1d:	030c                	addi	a1,sp,384
 b1f:	0004092f          	0x4092f
 b23:	0301                	addi	t1,t1,0
 b25:	094e                	slli	s2,s2,0x13
 b27:	0002                	c.slli64	zero
 b29:	0501                	addi	a0,a0,0
 b2b:	0605                	addi	a2,a2,1
 b2d:	04090003          	lb	zero,64(s2)
 b31:	0100                	addi	s0,sp,128
 b33:	0005                	c.nop	1
 b35:	08095603          	lhu	a2,128(s2)
 b39:	0100                	addi	s0,sp,128
 b3b:	0c05                	addi	s8,s8,1
 b3d:	0306                	slli	t1,t1,0x1
 b3f:	00dc                	addi	a5,sp,68
 b41:	0809                	addi	a6,a6,2
 b43:	0100                	addi	s0,sp,128
 b45:	0306                	slli	t1,t1,0x1
 b47:	7fa4                	ld	s1,120(a5)
 b49:	0209                	addi	tp,tp,2
 b4b:	0100                	addi	s0,sp,128
 b4d:	1505                	addi	a0,a0,-31
 b4f:	0306                	slli	t1,t1,0x1
 b51:	092d                	addi	s2,s2,11
 b53:	0002                	c.slli64	zero
 b55:	0501                	addi	a0,a0,0
 b57:	0310                	addi	a2,sp,384
 b59:	097f                	0x97f
 b5b:	0004                	0x4
 b5d:	0501                	addi	a0,a0,0
 b5f:	030d                	addi	t1,t1,3
 b61:	0901                	addi	s2,s2,0
 b63:	0002                	c.slli64	zero
 b65:	0501                	addi	a0,a0,0
 b67:	0321                	addi	t1,t1,8
 b69:	0910                	addi	a2,sp,144
 b6b:	0010                	0x10
 b6d:	0501                	addi	a0,a0,0
 b6f:	0319                	addi	t1,t1,6
 b71:	0902                	c.slli64	s2
 b73:	000c                	0xc
 b75:	0601                	addi	a2,a2,0
 b77:	04094103          	lbu	sp,64(s2)
 b7b:	0100                	addi	s0,sp,128
 b7d:	1505                	addi	a0,a0,-31
 b7f:	0306                	slli	t1,t1,0x1
 b81:	00c5                	addi	ra,ra,17
 b83:	0209                	addi	tp,tp,2
 b85:	0100                	addi	s0,sp,128
 b87:	0d05                	addi	s10,s10,1
 b89:	06096803          	lwu	a6,96(s2)
 b8d:	0100                	addi	s0,sp,128
 b8f:	2605                	addiw	a2,a2,1
 b91:	08092403          	lw	s0,128(s2)
 b95:	0100                	addi	s0,sp,128
 b97:	3205                	addiw	tp,tp,-31
 b99:	0c090203          	lb	tp,192(s2)
 b9d:	0100                	addi	s0,sp,128
 b9f:	2105                	addiw	sp,sp,1
 ba1:	04090103          	lb	sp,64(s2)
 ba5:	0100                	addi	s0,sp,128
 ba7:	1905                	addi	s2,s2,-31
 ba9:	0306                	slli	t1,t1,0x1
 bab:	0900                	addi	s0,sp,144
 bad:	0006                	c.slli	zero,0x1
 baf:	0501                	addi	a0,a0,0
 bb1:	063e                	slli	a2,a2,0xf
 bb3:	08097f03          	0x8097f03
 bb7:	0100                	addi	s0,sp,128
 bb9:	2105                	addiw	sp,sp,1
 bbb:	06090103          	lb	sp,96(s2)
 bbf:	0100                	addi	s0,sp,128
 bc1:	1905                	addi	s2,s2,-31
 bc3:	0306                	slli	t1,t1,0x1
 bc5:	0900                	addi	s0,sp,144
 bc7:	0006                	c.slli	zero,0x1
 bc9:	0501                	addi	a0,a0,0
 bcb:	063e                	slli	a2,a2,0xf
 bcd:	08097f03          	0x8097f03
 bd1:	0100                	addi	s0,sp,128
 bd3:	2105                	addiw	sp,sp,1
 bd5:	06090103          	lb	sp,96(s2)
 bd9:	0100                	addi	s0,sp,128
 bdb:	1905                	addi	s2,s2,-31
 bdd:	0306                	slli	t1,t1,0x1
 bdf:	0900                	addi	s0,sp,144
 be1:	0006                	c.slli	zero,0x1
 be3:	0501                	addi	a0,a0,0
 be5:	063e                	slli	a2,a2,0xf
 be7:	08097f03          	0x8097f03
 beb:	0100                	addi	s0,sp,128
 bed:	2105                	addiw	sp,sp,1
 bef:	06090103          	lb	sp,96(s2)
 bf3:	0100                	addi	s0,sp,128
 bf5:	1905                	addi	s2,s2,-31
 bf7:	0306                	slli	t1,t1,0x1
 bf9:	0900                	addi	s0,sp,144
 bfb:	0006                	c.slli	zero,0x1
 bfd:	0501                	addi	a0,a0,0
 bff:	063e                	slli	a2,a2,0xf
 c01:	08097f03          	0x8097f03
 c05:	0100                	addi	s0,sp,128
 c07:	2105                	addiw	sp,sp,1
 c09:	06090103          	lb	sp,96(s2)
 c0d:	0100                	addi	s0,sp,128
 c0f:	1905                	addi	s2,s2,-31
 c11:	0306                	slli	t1,t1,0x1
 c13:	0900                	addi	s0,sp,144
 c15:	0006                	c.slli	zero,0x1
 c17:	0501                	addi	a0,a0,0
 c19:	063e                	slli	a2,a2,0xf
 c1b:	08097f03          	0x8097f03
 c1f:	0100                	addi	s0,sp,128
 c21:	2105                	addiw	sp,sp,1
 c23:	06090103          	lb	sp,96(s2)
 c27:	0100                	addi	s0,sp,128
 c29:	1905                	addi	s2,s2,-31
 c2b:	0306                	slli	t1,t1,0x1
 c2d:	0900                	addi	s0,sp,144
 c2f:	0006                	c.slli	zero,0x1
 c31:	0501                	addi	a0,a0,0
 c33:	063e                	slli	a2,a2,0xf
 c35:	08097f03          	0x8097f03
 c39:	0100                	addi	s0,sp,128
 c3b:	2105                	addiw	sp,sp,1
 c3d:	06090103          	lb	sp,96(s2)
 c41:	0100                	addi	s0,sp,128
 c43:	1905                	addi	s2,s2,-31
 c45:	0306                	slli	t1,t1,0x1
 c47:	0900                	addi	s0,sp,144
 c49:	0006                	c.slli	zero,0x1
 c4b:	0501                	addi	a0,a0,0
 c4d:	0321                	addi	t1,t1,8
 c4f:	0900                	addi	s0,sp,144
 c51:	0008                	0x8
 c53:	0501                	addi	a0,a0,0
 c55:	0300                	addi	s0,sp,384
 c57:	7fac                	ld	a1,120(a5)
 c59:	0809                	addi	a6,a6,2
 c5b:	0100                	addi	s0,sp,128
 c5d:	0c05                	addi	s8,s8,1
 c5f:	0306                	slli	t1,t1,0x1
 c61:	00dc                	addi	a5,sp,68
 c63:	0809                	addi	a6,a6,2
 c65:	0100                	addi	s0,sp,128
 c67:	0306                	slli	t1,t1,0x1
 c69:	7fa4                	ld	s1,120(a5)
 c6b:	0209                	addi	tp,tp,2
 c6d:	0100                	addi	s0,sp,128
 c6f:	2505                	addiw	a0,a0,1
 c71:	0306                	slli	t1,t1,0x1
 c73:	0935                	addi	s2,s2,13
 c75:	0002                	c.slli64	zero
 c77:	0501                	addi	a0,a0,0
 c79:	031c                	addi	a5,sp,384
 c7b:	0901                	addi	s2,s2,0
 c7d:	000a                	c.slli	zero,0x2
 c7f:	0501                	addi	a0,a0,0
 c81:	0615                	addi	a2,a2,5
 c83:	04090003          	lb	zero,64(s2)
 c87:	0100                	addi	s0,sp,128
 c89:	1905                	addi	s2,s2,-31
 c8b:	0306                	slli	t1,t1,0x1
 c8d:	0901                	addi	s2,s2,0
 c8f:	0006                	c.slli	zero,0x1
 c91:	0501                	addi	a0,a0,0
 c93:	031c                	addi	a5,sp,384
 c95:	097f                	0x97f
 c97:	000c                	0xc
 c99:	0501                	addi	a0,a0,0
 c9b:	0615                	addi	a2,a2,5
 c9d:	04090003          	lb	zero,64(s2)
 ca1:	0100                	addi	s0,sp,128
 ca3:	1905                	addi	s2,s2,-31
 ca5:	0306                	slli	t1,t1,0x1
 ca7:	090a                	slli	s2,s2,0x2
 ca9:	0006                	c.slli	zero,0x1
 cab:	0501                	addi	a0,a0,0
 cad:	0325                	addi	t1,t1,9
 caf:	0901                	addi	s2,s2,0
 cb1:	000c                	0xc
 cb3:	0601                	addi	a2,a2,0
 cb5:	097fbf03          	ld	t5,151(t6)
 cb9:	0004                	0x4
 cbb:	0501                	addi	a0,a0,0
 cbd:	0615                	addi	a2,a2,5
 cbf:	0900c503          	lbu	a0,144(ra)
 cc3:	0002                	c.slli64	zero
 cc5:	0601                	addi	a2,a2,0
 cc7:	097fbb03          	ld	s6,151(t6)
 ccb:	0004                	0x4
 ccd:	0501                	addi	a0,a0,0
 ccf:	0621                	addi	a2,a2,8
 cd1:	0900c603          	lbu	a2,144(ra)
 cd5:	0002                	c.slli64	zero
 cd7:	0501                	addi	a0,a0,0
 cd9:	0326                	slli	t1,t1,0x9
 cdb:	097f                	0x97f
 cdd:	0004                	0x4
 cdf:	0501                	addi	a0,a0,0
 ce1:	0615                	addi	a2,a2,5
 ce3:	04090003          	lb	zero,64(s2)
 ce7:	0100                	addi	s0,sp,128
 ce9:	097fbb03          	ld	s6,151(t6)
 ced:	0004                	0x4
 cef:	0501                	addi	a0,a0,0
 cf1:	0631                	addi	a2,a2,12
 cf3:	0900c903          	lbu	s2,144(ra)
 cf7:	0002                	c.slli64	zero
 cf9:	0501                	addi	a0,a0,0
 cfb:	0621                	addi	a2,a2,8
 cfd:	04090003          	lb	zero,64(s2)
 d01:	0100                	addi	s0,sp,128
 d03:	1905                	addi	s2,s2,-31
 d05:	04090003          	lb	zero,64(s2)
 d09:	0100                	addi	s0,sp,128
 d0b:	097fb703          	ld	a4,151(t6)
 d0f:	000c                	0xc
 d11:	0501                	addi	a0,a0,0
 d13:	0621                	addi	a2,a2,8
 d15:	0900cb03          	lbu	s6,144(ra)
 d19:	0008                	0x8
 d1b:	0501                	addi	a0,a0,0
 d1d:	0315                	addi	t1,t1,5
 d1f:	097d                	addi	s2,s2,31
 d21:	000a                	c.slli	zero,0x2
 d23:	0301                	addi	t1,t1,0
 d25:	00060967          	jalr	s2,a2 # fffffffff803083e <__free_ram_end+0xffffffff73dee83e>
 d29:	0601                	addi	a2,a2,0
 d2b:	0c095103          	lhu	sp,192(s2)
 d2f:	0100                	addi	s0,sp,128
 d31:	0105                	addi	sp,sp,1
 d33:	0b06                	slli	s6,s6,0x1
 d35:	0900e103          	lwu	sp,144(ra)
 d39:	001a                	c.slli	zero,0x6
 d3b:	0901                	addi	s2,s2,0
 d3d:	0004                	0x4
 d3f:	0100                	addi	s0,sp,128
 d41:	01              	Address 0x0000000000000d41 is out of bounds.

