
kernel.elf:     file format elf64-littleriscv


Disassembly of section .text:

0000000080200000 <boot>:
    80200000:	00041517          	auipc	a0,0x41
    80200004:	17050513          	addi	a0,a0,368 # 80241170 <__stack_top>
    80200008:	812a                	mv	sp,a0
    8020000a:	0c70006f          	j	802008d0 <kernel_main>
	...

0000000080200010 <sbi_call>:
    80200010:	00000073          	ecall
    80200014:	8082                	ret

0000000080200016 <putchar>:
    80200016:	4885                	li	a7,1
    80200018:	4581                	li	a1,0
    8020001a:	4601                	li	a2,0
    8020001c:	4681                	li	a3,0
    8020001e:	4701                	li	a4,0
    80200020:	4781                	li	a5,0
    80200022:	4801                	li	a6,0
    80200024:	00000073          	ecall
    80200028:	8082                	ret

000000008020002a <getchar>:
    8020002a:	4889                	li	a7,2
    8020002c:	4501                	li	a0,0
    8020002e:	4581                	li	a1,0
    80200030:	4601                	li	a2,0
    80200032:	4681                	li	a3,0
    80200034:	4701                	li	a4,0
    80200036:	4781                	li	a5,0
    80200038:	4801                	li	a6,0
    8020003a:	00000073          	ecall
    8020003e:	8082                	ret

0000000080200040 <kernel_entry>:
    80200040:	14011073          	csrw	sscratch,sp
    80200044:	f0810113          	addi	sp,sp,-248
    80200048:	e006                	sd	ra,0(sp)
    8020004a:	e40e                	sd	gp,8(sp)
    8020004c:	e812                	sd	tp,16(sp)
    8020004e:	ec16                	sd	t0,24(sp)
    80200050:	f01a                	sd	t1,32(sp)
    80200052:	f41e                	sd	t2,40(sp)
    80200054:	f872                	sd	t3,48(sp)
    80200056:	fc76                	sd	t4,56(sp)
    80200058:	e0fa                	sd	t5,64(sp)
    8020005a:	e4fe                	sd	t6,72(sp)
    8020005c:	e8aa                	sd	a0,80(sp)
    8020005e:	ecae                	sd	a1,88(sp)
    80200060:	f0b2                	sd	a2,96(sp)
    80200062:	f4b6                	sd	a3,104(sp)
    80200064:	f8ba                	sd	a4,112(sp)
    80200066:	fcbe                	sd	a5,120(sp)
    80200068:	e142                	sd	a6,128(sp)
    8020006a:	e546                	sd	a7,136(sp)
    8020006c:	e922                	sd	s0,144(sp)
    8020006e:	ed26                	sd	s1,152(sp)
    80200070:	f14a                	sd	s2,160(sp)
    80200072:	f54e                	sd	s3,168(sp)
    80200074:	f952                	sd	s4,176(sp)
    80200076:	fd56                	sd	s5,184(sp)
    80200078:	e1da                	sd	s6,192(sp)
    8020007a:	e5de                	sd	s7,200(sp)
    8020007c:	e9e2                	sd	s8,208(sp)
    8020007e:	ede6                	sd	s9,216(sp)
    80200080:	f1ea                	sd	s10,224(sp)
    80200082:	f5ee                	sd	s11,232(sp)
    80200084:	14002573          	csrr	a0,sscratch
    80200088:	f9aa                	sd	a0,240(sp)
    8020008a:	19a8                	addi	a0,sp,248
    8020008c:	14051073          	csrw	sscratch,a0
    80200090:	850a                	mv	a0,sp
    80200092:	00000097          	auipc	ra,0x0
    80200096:	784080e7          	jalr	1924(ra) # 80200816 <handle_trap>
    8020009a:	6082                	ld	ra,0(sp)
    8020009c:	61a2                	ld	gp,8(sp)
    8020009e:	6242                	ld	tp,16(sp)
    802000a0:	62e2                	ld	t0,24(sp)
    802000a2:	7302                	ld	t1,32(sp)
    802000a4:	73a2                	ld	t2,40(sp)
    802000a6:	7e42                	ld	t3,48(sp)
    802000a8:	7ee2                	ld	t4,56(sp)
    802000aa:	6f06                	ld	t5,64(sp)
    802000ac:	6fa6                	ld	t6,72(sp)
    802000ae:	6546                	ld	a0,80(sp)
    802000b0:	65e6                	ld	a1,88(sp)
    802000b2:	7606                	ld	a2,96(sp)
    802000b4:	76a6                	ld	a3,104(sp)
    802000b6:	7746                	ld	a4,112(sp)
    802000b8:	77e6                	ld	a5,120(sp)
    802000ba:	680a                	ld	a6,128(sp)
    802000bc:	68aa                	ld	a7,136(sp)
    802000be:	644a                	ld	s0,144(sp)
    802000c0:	64ea                	ld	s1,152(sp)
    802000c2:	790a                	ld	s2,160(sp)
    802000c4:	79aa                	ld	s3,168(sp)
    802000c6:	7a4a                	ld	s4,176(sp)
    802000c8:	7aea                	ld	s5,184(sp)
    802000ca:	6b0e                	ld	s6,192(sp)
    802000cc:	6bae                	ld	s7,200(sp)
    802000ce:	6c4e                	ld	s8,208(sp)
    802000d0:	6cee                	ld	s9,216(sp)
    802000d2:	7d0e                	ld	s10,224(sp)
    802000d4:	7dae                	ld	s11,232(sp)
    802000d6:	714e                	ld	sp,240(sp)
    802000d8:	10200073          	sret

00000000802000dc <myfunc>:
    802000dc:	1141                	addi	sp,sp,-16
    802000de:	e406                	sd	ra,8(sp)
    802000e0:	00001517          	auipc	a0,0x1
    802000e4:	c6550513          	addi	a0,a0,-923 # 80200d45 <$d.2>
    802000e8:	00001597          	auipc	a1,0x1
    802000ec:	af458593          	addi	a1,a1,-1292 # 80200bdc <printf+0x1fc>
    802000f0:	08700613          	li	a2,135
    802000f4:	00001097          	auipc	ra,0x1
    802000f8:	8ec080e7          	jalr	-1812(ra) # 802009e0 <printf>
    802000fc:	a001                	j	802000fc <myfunc+0x20>

00000000802000fe <switch_context>:
    802000fe:	f9810113          	addi	sp,sp,-104
    80200102:	e006                	sd	ra,0(sp)
    80200104:	e422                	sd	s0,8(sp)
    80200106:	e826                	sd	s1,16(sp)
    80200108:	ec4a                	sd	s2,24(sp)
    8020010a:	f04e                	sd	s3,32(sp)
    8020010c:	f452                	sd	s4,40(sp)
    8020010e:	f856                	sd	s5,48(sp)
    80200110:	fc5a                	sd	s6,56(sp)
    80200112:	e0de                	sd	s7,64(sp)
    80200114:	e4e2                	sd	s8,72(sp)
    80200116:	e8e6                	sd	s9,80(sp)
    80200118:	ecea                	sd	s10,88(sp)
    8020011a:	f0ee                	sd	s11,96(sp)
    8020011c:	00253023          	sd	sp,0(a0)
    80200120:	0005b103          	ld	sp,0(a1)
    80200124:	6082                	ld	ra,0(sp)
    80200126:	6422                	ld	s0,8(sp)
    80200128:	64c2                	ld	s1,16(sp)
    8020012a:	6962                	ld	s2,24(sp)
    8020012c:	7982                	ld	s3,32(sp)
    8020012e:	7a22                	ld	s4,40(sp)
    80200130:	7ac2                	ld	s5,48(sp)
    80200132:	7b62                	ld	s6,56(sp)
    80200134:	6b86                	ld	s7,64(sp)
    80200136:	6c26                	ld	s8,72(sp)
    80200138:	6cc6                	ld	s9,80(sp)
    8020013a:	6d66                	ld	s10,88(sp)
    8020013c:	7d86                	ld	s11,96(sp)
    8020013e:	06810113          	addi	sp,sp,104
    80200142:	8082                	ret

0000000080200144 <alloc_pages>:
    80200144:	1141                	addi	sp,sp,-16
    80200146:	e406                	sd	ra,8(sp)
    80200148:	e022                	sd	s0,0(sp)
    8020014a:	00011597          	auipc	a1,0x11
    8020014e:	f365b403          	ld	s0,-202(a1) # 80211080 <_binary_shell_bin_end>
    80200152:	00c51613          	slli	a2,a0,0xc
    80200156:	00c40533          	add	a0,s0,a2
    8020015a:	04042697          	auipc	a3,0x4042
    8020015e:	ea668693          	addi	a3,a3,-346 # 84242000 <__free_ram_end>
    80200162:	f2a5bb23          	sd	a0,-202(a1)
    80200166:	02a6f163          	bgeu	a3,a0,80200188 <alloc_pages+0x44>
    8020016a:	00001517          	auipc	a0,0x1
    8020016e:	b0750513          	addi	a0,a0,-1273 # 80200c71 <printf+0x291>
    80200172:	00001597          	auipc	a1,0x1
    80200176:	a6a58593          	addi	a1,a1,-1430 # 80200bdc <printf+0x1fc>
    8020017a:	0b900613          	li	a2,185
    8020017e:	00001097          	auipc	ra,0x1
    80200182:	862080e7          	jalr	-1950(ra) # 802009e0 <printf>
    80200186:	a001                	j	80200186 <alloc_pages+0x42>
    80200188:	8522                	mv	a0,s0
    8020018a:	4581                	li	a1,0
    8020018c:	00000097          	auipc	ra,0x0
    80200190:	7d0080e7          	jalr	2000(ra) # 8020095c <memset>
    80200194:	8522                	mv	a0,s0
    80200196:	60a2                	ld	ra,8(sp)
    80200198:	6402                	ld	s0,0(sp)
    8020019a:	0141                	addi	sp,sp,16
    8020019c:	8082                	ret

000000008020019e <map_page>:
    8020019e:	7179                	addi	sp,sp,-48
    802001a0:	f406                	sd	ra,40(sp)
    802001a2:	f022                	sd	s0,32(sp)
    802001a4:	ec26                	sd	s1,24(sp)
    802001a6:	e84a                	sd	s2,16(sp)
    802001a8:	e44e                	sd	s3,8(sp)
    802001aa:	e052                	sd	s4,0(sp)
    802001ac:	842e                	mv	s0,a1
    802001ae:	15d2                	slli	a1,a1,0x34
    802001b0:	c18d                	beqz	a1,802001d2 <map_page+0x34>
    802001b2:	00001517          	auipc	a0,0x1
    802001b6:	afe50513          	addi	a0,a0,-1282 # 80200cb0 <printf+0x2d0>
    802001ba:	00001597          	auipc	a1,0x1
    802001be:	a2258593          	addi	a1,a1,-1502 # 80200bdc <printf+0x1fc>
    802001c2:	0d900613          	li	a2,217
    802001c6:	86a2                	mv	a3,s0
    802001c8:	00001097          	auipc	ra,0x1
    802001cc:	818080e7          	jalr	-2024(ra) # 802009e0 <printf>
    802001d0:	a001                	j	802001d0 <map_page+0x32>
    802001d2:	6585                	lui	a1,0x1
    802001d4:	35fd                	addiw	a1,a1,-1
    802001d6:	8df1                	and	a1,a1,a2
    802001d8:	c18d                	beqz	a1,802001fa <map_page+0x5c>
    802001da:	00001517          	auipc	a0,0x1
    802001de:	ab450513          	addi	a0,a0,-1356 # 80200c8e <printf+0x2ae>
    802001e2:	00001597          	auipc	a1,0x1
    802001e6:	9fa58593          	addi	a1,a1,-1542 # 80200bdc <printf+0x1fc>
    802001ea:	86b2                	mv	a3,a2
    802001ec:	0dc00613          	li	a2,220
    802001f0:	00000097          	auipc	ra,0x0
    802001f4:	7f0080e7          	jalr	2032(ra) # 802009e0 <printf>
    802001f8:	a001                	j	802001f8 <map_page+0x5a>
    802001fa:	01941593          	slli	a1,s0,0x19
    802001fe:	91dd                	srli	a1,a1,0x37
    80200200:	058e                	slli	a1,a1,0x3
    80200202:	00b504b3          	add	s1,a0,a1
    80200206:	6088                	ld	a0,0(s1)
    80200208:	00157593          	andi	a1,a0,1
    8020020c:	edb1                	bnez	a1,80200268 <map_page+0xca>
    8020020e:	00011517          	auipc	a0,0x11
    80200212:	e7253903          	ld	s2,-398(a0) # 80211080 <_binary_shell_bin_end>
    80200216:	6585                	lui	a1,0x1
    80200218:	95ca                	add	a1,a1,s2
    8020021a:	04042717          	auipc	a4,0x4042
    8020021e:	de670713          	addi	a4,a4,-538 # 84242000 <__free_ram_end>
    80200222:	e6b53923          	sd	a1,-398(a0)
    80200226:	02b77163          	bgeu	a4,a1,80200248 <map_page+0xaa>
    8020022a:	00001517          	auipc	a0,0x1
    8020022e:	a4750513          	addi	a0,a0,-1465 # 80200c71 <printf+0x291>
    80200232:	00001597          	auipc	a1,0x1
    80200236:	9aa58593          	addi	a1,a1,-1622 # 80200bdc <printf+0x1fc>
    8020023a:	0b900613          	li	a2,185
    8020023e:	00000097          	auipc	ra,0x0
    80200242:	7a2080e7          	jalr	1954(ra) # 802009e0 <printf>
    80200246:	a001                	j	80200246 <map_page+0xa8>
    80200248:	89b2                	mv	s3,a2
    8020024a:	6605                	lui	a2,0x1
    8020024c:	854a                	mv	a0,s2
    8020024e:	4581                	li	a1,0
    80200250:	8a36                	mv	s4,a3
    80200252:	00000097          	auipc	ra,0x0
    80200256:	70a080e7          	jalr	1802(ra) # 8020095c <memset>
    8020025a:	86d2                	mv	a3,s4
    8020025c:	864e                	mv	a2,s3
    8020025e:	00c95513          	srli	a0,s2,0xc
    80200262:	052a                	slli	a0,a0,0xa
    80200264:	0505                	addi	a0,a0,1
    80200266:	e088                	sd	a0,0(s1)
    80200268:	02241593          	slli	a1,s0,0x22
    8020026c:	91dd                	srli	a1,a1,0x37
    8020026e:	8129                	srli	a0,a0,0xa
    80200270:	0532                	slli	a0,a0,0xc
    80200272:	058e                	slli	a1,a1,0x3
    80200274:	00b564b3          	or	s1,a0,a1
    80200278:	6088                	ld	a0,0(s1)
    8020027a:	00157593          	andi	a1,a0,1
    8020027e:	edb1                	bnez	a1,802002da <map_page+0x13c>
    80200280:	00011517          	auipc	a0,0x11
    80200284:	e0053903          	ld	s2,-512(a0) # 80211080 <_binary_shell_bin_end>
    80200288:	6585                	lui	a1,0x1
    8020028a:	95ca                	add	a1,a1,s2
    8020028c:	04042717          	auipc	a4,0x4042
    80200290:	d7470713          	addi	a4,a4,-652 # 84242000 <__free_ram_end>
    80200294:	e0b53023          	sd	a1,-512(a0)
    80200298:	02b77163          	bgeu	a4,a1,802002ba <map_page+0x11c>
    8020029c:	00001517          	auipc	a0,0x1
    802002a0:	9d550513          	addi	a0,a0,-1579 # 80200c71 <printf+0x291>
    802002a4:	00001597          	auipc	a1,0x1
    802002a8:	93858593          	addi	a1,a1,-1736 # 80200bdc <printf+0x1fc>
    802002ac:	0b900613          	li	a2,185
    802002b0:	00000097          	auipc	ra,0x0
    802002b4:	730080e7          	jalr	1840(ra) # 802009e0 <printf>
    802002b8:	a001                	j	802002b8 <map_page+0x11a>
    802002ba:	89b2                	mv	s3,a2
    802002bc:	6605                	lui	a2,0x1
    802002be:	854a                	mv	a0,s2
    802002c0:	4581                	li	a1,0
    802002c2:	8a36                	mv	s4,a3
    802002c4:	00000097          	auipc	ra,0x0
    802002c8:	698080e7          	jalr	1688(ra) # 8020095c <memset>
    802002cc:	86d2                	mv	a3,s4
    802002ce:	864e                	mv	a2,s3
    802002d0:	00c95513          	srli	a0,s2,0xc
    802002d4:	052a                	slli	a0,a0,0xa
    802002d6:	0505                	addi	a0,a0,1
    802002d8:	e088                	sd	a0,0(s1)
    802002da:	8129                	srli	a0,a0,0xa
    802002dc:	0532                	slli	a0,a0,0xc
    802002de:	8209                	srli	a2,a2,0x2
    802002e0:	8e55                	or	a2,a2,a3
    802002e2:	00166593          	ori	a1,a2,1
    802002e6:	8025                	srli	s0,s0,0x9
    802002e8:	6605                	lui	a2,0x1
    802002ea:	3661                	addiw	a2,a2,-8
    802002ec:	8e61                	and	a2,a2,s0
    802002ee:	8d51                	or	a0,a0,a2
    802002f0:	e10c                	sd	a1,0(a0)
    802002f2:	70a2                	ld	ra,40(sp)
    802002f4:	7402                	ld	s0,32(sp)
    802002f6:	64e2                	ld	s1,24(sp)
    802002f8:	6942                	ld	s2,16(sp)
    802002fa:	69a2                	ld	s3,8(sp)
    802002fc:	6a02                	ld	s4,0(sp)
    802002fe:	6145                	addi	sp,sp,48
    80200300:	8082                	ret

0000000080200302 <user_entry>:
    80200302:	01000537          	lui	a0,0x1000
    80200306:	02000593          	li	a1,32
    8020030a:	14151073          	csrw	sepc,a0
    8020030e:	10059073          	csrw	sstatus,a1
    80200312:	10200073          	sret

0000000080200316 <create_process>:
    80200316:	7119                	addi	sp,sp,-128
    80200318:	fc86                	sd	ra,120(sp)
    8020031a:	f8a2                	sd	s0,112(sp)
    8020031c:	f4a6                	sd	s1,104(sp)
    8020031e:	f0ca                	sd	s2,96(sp)
    80200320:	ecce                	sd	s3,88(sp)
    80200322:	e8d2                	sd	s4,80(sp)
    80200324:	e4d6                	sd	s5,72(sp)
    80200326:	e0da                	sd	s6,64(sp)
    80200328:	fc5e                	sd	s7,56(sp)
    8020032a:	f862                	sd	s8,48(sp)
    8020032c:	f466                	sd	s9,40(sp)
    8020032e:	f06a                	sd	s10,32(sp)
    80200330:	ec6e                	sd	s11,24(sp)
    80200332:	00011617          	auipc	a2,0x11
    80200336:	d5660a13          	addi	s4,a2,-682 # 80211088 <procs>
    8020033a:	004a2603          	lw	a2,4(s4)
    8020033e:	8aae                	mv	s5,a1
    80200340:	892a                	mv	s2,a0
    80200342:	ce31                	beqz	a2,8020039e <create_process+0x88>
    80200344:	6509                	lui	a0,0x2
    80200346:	9552                	add	a0,a0,s4
    80200348:	4d48                	lw	a0,28(a0)
    8020034a:	cd21                	beqz	a0,802003a2 <create_process+0x8c>
    8020034c:	6511                	lui	a0,0x4
    8020034e:	9552                	add	a0,a0,s4
    80200350:	5948                	lw	a0,52(a0)
    80200352:	c931                	beqz	a0,802003a6 <create_process+0x90>
    80200354:	6519                	lui	a0,0x6
    80200356:	9552                	add	a0,a0,s4
    80200358:	4568                	lw	a0,76(a0)
    8020035a:	c921                	beqz	a0,802003aa <create_process+0x94>
    8020035c:	6521                	lui	a0,0x8
    8020035e:	9552                	add	a0,a0,s4
    80200360:	5168                	lw	a0,100(a0)
    80200362:	c531                	beqz	a0,802003ae <create_process+0x98>
    80200364:	6529                	lui	a0,0xa
    80200366:	9552                	add	a0,a0,s4
    80200368:	5d68                	lw	a0,124(a0)
    8020036a:	c521                	beqz	a0,802003b2 <create_process+0x9c>
    8020036c:	6531                	lui	a0,0xc
    8020036e:	9552                	add	a0,a0,s4
    80200370:	09452503          	lw	a0,148(a0) # c094 <$d.2+0xaf0b>
    80200374:	c129                	beqz	a0,802003b6 <create_process+0xa0>
    80200376:	6539                	lui	a0,0xe
    80200378:	9552                	add	a0,a0,s4
    8020037a:	0ac52503          	lw	a0,172(a0) # e0ac <$d.2+0xcf23>
    8020037e:	cd15                	beqz	a0,802003ba <create_process+0xa4>
    80200380:	00001517          	auipc	a0,0x1
    80200384:	96350513          	addi	a0,a0,-1693 # 80200ce3 <$d.1+0x11>
    80200388:	00001597          	auipc	a1,0x1
    8020038c:	85458593          	addi	a1,a1,-1964 # 80200bdc <printf+0x1fc>
    80200390:	12700613          	li	a2,295
    80200394:	00000097          	auipc	ra,0x0
    80200398:	64c080e7          	jalr	1612(ra) # 802009e0 <printf>
    8020039c:	a001                	j	8020039c <create_process+0x86>
    8020039e:	4681                	li	a3,0
    802003a0:	a831                	j	802003bc <create_process+0xa6>
    802003a2:	4685                	li	a3,1
    802003a4:	a821                	j	802003bc <create_process+0xa6>
    802003a6:	4689                	li	a3,2
    802003a8:	a811                	j	802003bc <create_process+0xa6>
    802003aa:	468d                	li	a3,3
    802003ac:	a801                	j	802003bc <create_process+0xa6>
    802003ae:	4691                	li	a3,4
    802003b0:	a031                	j	802003bc <create_process+0xa6>
    802003b2:	4695                	li	a3,5
    802003b4:	a021                	j	802003bc <create_process+0xa6>
    802003b6:	4699                	li	a3,6
    802003b8:	a011                	j	802003bc <create_process+0xa6>
    802003ba:	469d                	li	a3,7
    802003bc:	6509                	lui	a0,0x2
    802003be:	0185059b          	addiw	a1,a0,24
    802003c2:	02b685b3          	mul	a1,a3,a1
    802003c6:	95d2                	add	a1,a1,s4
    802003c8:	00a58633          	add	a2,a1,a0
    802003cc:	00063823          	sd	zero,16(a2)
    802003d0:	00063423          	sd	zero,8(a2)
    802003d4:	00063023          	sd	zero,0(a2)
    802003d8:	fe063c23          	sd	zero,-8(a2)
    802003dc:	fe063823          	sd	zero,-16(a2)
    802003e0:	fe063423          	sd	zero,-24(a2)
    802003e4:	fe063023          	sd	zero,-32(a2)
    802003e8:	fc063c23          	sd	zero,-40(a2)
    802003ec:	fc063823          	sd	zero,-48(a2)
    802003f0:	fc063423          	sd	zero,-56(a2)
    802003f4:	fc063023          	sd	zero,-64(a2)
    802003f8:	fa063c23          	sd	zero,-72(a2)
    802003fc:	fb05051b          	addiw	a0,a0,-80
    80200400:	00a58633          	add	a2,a1,a0
    80200404:	00000517          	auipc	a0,0x0
    80200408:	00011b97          	auipc	s7,0x11
    8020040c:	c78bbc03          	ld	s8,-904(s7) # 80211080 <_binary_shell_bin_end>
    80200410:	efe50513          	addi	a0,a0,-258 # 80200302 <user_entry>
    80200414:	e208                	sd	a0,0(a2)
    80200416:	6505                	lui	a0,0x1
    80200418:	9562                	add	a0,a0,s8
    8020041a:	04042597          	auipc	a1,0x4042
    8020041e:	be658c93          	addi	s9,a1,-1050 # 84242000 <__free_ram_end>
    80200422:	c6abbc23          	sd	a0,-904(s7)
    80200426:	02acf163          	bgeu	s9,a0,80200448 <create_process+0x132>
    8020042a:	00001517          	auipc	a0,0x1
    8020042e:	84750513          	addi	a0,a0,-1977 # 80200c71 <printf+0x291>
    80200432:	00000597          	auipc	a1,0x0
    80200436:	7aa58593          	addi	a1,a1,1962 # 80200bdc <printf+0x1fc>
    8020043a:	0b900613          	li	a2,185
    8020043e:	00000097          	auipc	ra,0x0
    80200442:	5a2080e7          	jalr	1442(ra) # 802009e0 <printf>
    80200446:	a001                	j	80200446 <create_process+0x130>
    80200448:	e432                	sd	a2,8(sp)
    8020044a:	e836                	sd	a3,16(sp)
    8020044c:	6605                	lui	a2,0x1
    8020044e:	6485                	lui	s1,0x1
    80200450:	8562                	mv	a0,s8
    80200452:	4581                	li	a1,0
    80200454:	00000097          	auipc	ra,0x0
    80200458:	508080e7          	jalr	1288(ra) # 8020095c <memset>
    8020045c:	00000517          	auipc	a0,0x0
    80200460:	ba450413          	addi	s0,a0,-1116 # 80200000 <boot>
    80200464:	01947d63          	bgeu	s0,s9,8020047e <create_process+0x168>
    80200468:	46b9                	li	a3,14
    8020046a:	8562                	mv	a0,s8
    8020046c:	85a2                	mv	a1,s0
    8020046e:	8622                	mv	a2,s0
    80200470:	00000097          	auipc	ra,0x0
    80200474:	d2e080e7          	jalr	-722(ra) # 8020019e <map_page>
    80200478:	9426                	add	s0,s0,s1
    8020047a:	ff9467e3          	bltu	s0,s9,80200468 <create_process+0x152>
    8020047e:	060a8463          	beqz	s5,802004e6 <create_process+0x1d0>
    80200482:	4481                	li	s1,0
    80200484:	6d05                	lui	s10,0x1
    80200486:	01000db7          	lui	s11,0x1000
    8020048a:	89d6                	mv	s3,s5
    8020048c:	6b05                	lui	s6,0x1
    8020048e:	a805                	j	802004be <create_process+0x1a8>
    80200490:	009905b3          	add	a1,s2,s1
    80200494:	8522                	mv	a0,s0
    80200496:	00000097          	auipc	ra,0x0
    8020049a:	4dc080e7          	jalr	1244(ra) # 80200972 <memcpy>
    8020049e:	01b485b3          	add	a1,s1,s11
    802004a2:	46f9                	li	a3,30
    802004a4:	8562                	mv	a0,s8
    802004a6:	8622                	mv	a2,s0
    802004a8:	00000097          	auipc	ra,0x0
    802004ac:	cf6080e7          	jalr	-778(ra) # 8020019e <map_page>
    802004b0:	94da                	add	s1,s1,s6
    802004b2:	80098513          	addi	a0,s3,-2048
    802004b6:	80050993          	addi	s3,a0,-2048
    802004ba:	0354f663          	bgeu	s1,s5,802004e6 <create_process+0x1d0>
    802004be:	c78bb403          	ld	s0,-904(s7)
    802004c2:	01a40533          	add	a0,s0,s10
    802004c6:	c6abbc23          	sd	a0,-904(s7)
    802004ca:	04aceb63          	bltu	s9,a0,80200520 <create_process+0x20a>
    802004ce:	6605                	lui	a2,0x1
    802004d0:	8522                	mv	a0,s0
    802004d2:	4581                	li	a1,0
    802004d4:	00000097          	auipc	ra,0x0
    802004d8:	488080e7          	jalr	1160(ra) # 8020095c <memset>
    802004dc:	864e                	mv	a2,s3
    802004de:	fb69e9e3          	bltu	s3,s6,80200490 <create_process+0x17a>
    802004e2:	6605                	lui	a2,0x1
    802004e4:	b775                	j	80200490 <create_process+0x17a>
    802004e6:	6509                	lui	a0,0x2
    802004e8:	2561                	addiw	a0,a0,24
    802004ea:	65c2                	ld	a1,16(sp)
    802004ec:	02a58533          	mul	a0,a1,a0
    802004f0:	9552                	add	a0,a0,s4
    802004f2:	0585                	addi	a1,a1,1
    802004f4:	c10c                	sw	a1,0(a0)
    802004f6:	4585                	li	a1,1
    802004f8:	c14c                	sw	a1,4(a0)
    802004fa:	65a2                	ld	a1,8(sp)
    802004fc:	e50c                	sd	a1,8(a0)
    802004fe:	01853823          	sd	s8,16(a0) # 2010 <$d.2+0xe87>
    80200502:	70e6                	ld	ra,120(sp)
    80200504:	7446                	ld	s0,112(sp)
    80200506:	74a6                	ld	s1,104(sp)
    80200508:	7906                	ld	s2,96(sp)
    8020050a:	69e6                	ld	s3,88(sp)
    8020050c:	6a46                	ld	s4,80(sp)
    8020050e:	6aa6                	ld	s5,72(sp)
    80200510:	6b06                	ld	s6,64(sp)
    80200512:	7be2                	ld	s7,56(sp)
    80200514:	7c42                	ld	s8,48(sp)
    80200516:	7ca2                	ld	s9,40(sp)
    80200518:	7d02                	ld	s10,32(sp)
    8020051a:	6de2                	ld	s11,24(sp)
    8020051c:	6109                	addi	sp,sp,128
    8020051e:	8082                	ret
    80200520:	00000517          	auipc	a0,0x0
    80200524:	75150513          	addi	a0,a0,1873 # 80200c71 <printf+0x291>
    80200528:	00000597          	auipc	a1,0x0
    8020052c:	6b458593          	addi	a1,a1,1716 # 80200bdc <printf+0x1fc>
    80200530:	0b900613          	li	a2,185
    80200534:	00000097          	auipc	ra,0x0
    80200538:	4ac080e7          	jalr	1196(ra) # 802009e0 <printf>
    8020053c:	a001                	j	8020053c <create_process+0x226>

000000008020053e <yield>:
    8020053e:	00021897          	auipc	a7,0x21
    80200542:	c128b283          	ld	t0,-1006(a7) # 80221150 <current_proc>
    80200546:	0002a703          	lw	a4,0(t0)
    8020054a:	00021617          	auipc	a2,0x21
    8020054e:	00171593          	slli	a1,a4,0x1
    80200552:	91f5                	srli	a1,a1,0x3d
    80200554:	95ba                	add	a1,a1,a4
    80200556:	99e1                	andi	a1,a1,-8
    80200558:	40b706bb          	subw	a3,a4,a1
    8020055c:	6589                	lui	a1,0x2
    8020055e:	25e1                	addiw	a1,a1,24
    80200560:	02b687b3          	mul	a5,a3,a1
    80200564:	00011697          	auipc	a3,0x11
    80200568:	b2468693          	addi	a3,a3,-1244 # 80211088 <procs>
    8020056c:	97b6                	add	a5,a5,a3
    8020056e:	43c8                	lw	a0,4(a5)
    80200570:	bfe63803          	ld	a6,-1026(a2) # 80221148 <idle_proc>
    80200574:	4605                	li	a2,1
    80200576:	00c51563          	bne	a0,a2,80200580 <yield+0x42>
    8020057a:	4388                	lw	a0,0(a5)
    8020057c:	14a04063          	bgtz	a0,802006bc <yield+0x17e>
    80200580:	00170513          	addi	a0,a4,1
    80200584:	41f5579b          	sraiw	a5,a0,0x1f
    80200588:	01d7d79b          	srliw	a5,a5,0x1d
    8020058c:	97aa                	add	a5,a5,a0
    8020058e:	9be1                	andi	a5,a5,-8
    80200590:	40f507bb          	subw	a5,a0,a5
    80200594:	02b78533          	mul	a0,a5,a1
    80200598:	9536                	add	a0,a0,a3
    8020059a:	4148                	lw	a0,4(a0)
    8020059c:	00c51a63          	bne	a0,a2,802005b0 <yield+0x72>
    802005a0:	6509                	lui	a0,0x2
    802005a2:	2561                	addiw	a0,a0,24
    802005a4:	02a787b3          	mul	a5,a5,a0
    802005a8:	97b6                	add	a5,a5,a3
    802005aa:	4388                	lw	a0,0(a5)
    802005ac:	10a04863          	bgtz	a0,802006bc <yield+0x17e>
    802005b0:	00270513          	addi	a0,a4,2
    802005b4:	41f5559b          	sraiw	a1,a0,0x1f
    802005b8:	01d5d59b          	srliw	a1,a1,0x1d
    802005bc:	95aa                	add	a1,a1,a0
    802005be:	99e1                	andi	a1,a1,-8
    802005c0:	9d0d                	subw	a0,a0,a1
    802005c2:	6589                	lui	a1,0x2
    802005c4:	25e1                	addiw	a1,a1,24
    802005c6:	02b507b3          	mul	a5,a0,a1
    802005ca:	97b6                	add	a5,a5,a3
    802005cc:	43c8                	lw	a0,4(a5)
    802005ce:	4605                	li	a2,1
    802005d0:	00c51563          	bne	a0,a2,802005da <yield+0x9c>
    802005d4:	4388                	lw	a0,0(a5)
    802005d6:	0ea04363          	bgtz	a0,802006bc <yield+0x17e>
    802005da:	00370513          	addi	a0,a4,3
    802005de:	41f5579b          	sraiw	a5,a0,0x1f
    802005e2:	01d7d79b          	srliw	a5,a5,0x1d
    802005e6:	97aa                	add	a5,a5,a0
    802005e8:	9be1                	andi	a5,a5,-8
    802005ea:	40f507bb          	subw	a5,a0,a5
    802005ee:	02b78533          	mul	a0,a5,a1
    802005f2:	9536                	add	a0,a0,a3
    802005f4:	4148                	lw	a0,4(a0)
    802005f6:	00c51a63          	bne	a0,a2,8020060a <yield+0xcc>
    802005fa:	6509                	lui	a0,0x2
    802005fc:	2561                	addiw	a0,a0,24
    802005fe:	02a787b3          	mul	a5,a5,a0
    80200602:	97b6                	add	a5,a5,a3
    80200604:	4388                	lw	a0,0(a5)
    80200606:	0aa04b63          	bgtz	a0,802006bc <yield+0x17e>
    8020060a:	00470513          	addi	a0,a4,4
    8020060e:	41f5559b          	sraiw	a1,a0,0x1f
    80200612:	01d5d59b          	srliw	a1,a1,0x1d
    80200616:	95aa                	add	a1,a1,a0
    80200618:	99e1                	andi	a1,a1,-8
    8020061a:	9d0d                	subw	a0,a0,a1
    8020061c:	6589                	lui	a1,0x2
    8020061e:	25e1                	addiw	a1,a1,24
    80200620:	02b507b3          	mul	a5,a0,a1
    80200624:	97b6                	add	a5,a5,a3
    80200626:	43c8                	lw	a0,4(a5)
    80200628:	4605                	li	a2,1
    8020062a:	00c51563          	bne	a0,a2,80200634 <yield+0xf6>
    8020062e:	4388                	lw	a0,0(a5)
    80200630:	08a04663          	bgtz	a0,802006bc <yield+0x17e>
    80200634:	00570513          	addi	a0,a4,5
    80200638:	41f5579b          	sraiw	a5,a0,0x1f
    8020063c:	01d7d79b          	srliw	a5,a5,0x1d
    80200640:	97aa                	add	a5,a5,a0
    80200642:	9be1                	andi	a5,a5,-8
    80200644:	40f507bb          	subw	a5,a0,a5
    80200648:	02b78533          	mul	a0,a5,a1
    8020064c:	9536                	add	a0,a0,a3
    8020064e:	4148                	lw	a0,4(a0)
    80200650:	00c51a63          	bne	a0,a2,80200664 <yield+0x126>
    80200654:	6509                	lui	a0,0x2
    80200656:	2561                	addiw	a0,a0,24
    80200658:	02a787b3          	mul	a5,a5,a0
    8020065c:	97b6                	add	a5,a5,a3
    8020065e:	4388                	lw	a0,0(a5)
    80200660:	04a04e63          	bgtz	a0,802006bc <yield+0x17e>
    80200664:	00670513          	addi	a0,a4,6
    80200668:	41f5559b          	sraiw	a1,a0,0x1f
    8020066c:	01d5d59b          	srliw	a1,a1,0x1d
    80200670:	95aa                	add	a1,a1,a0
    80200672:	99e1                	andi	a1,a1,-8
    80200674:	9d0d                	subw	a0,a0,a1
    80200676:	6589                	lui	a1,0x2
    80200678:	25e1                	addiw	a1,a1,24
    8020067a:	02b507b3          	mul	a5,a0,a1
    8020067e:	97b6                	add	a5,a5,a3
    80200680:	43c8                	lw	a0,4(a5)
    80200682:	4605                	li	a2,1
    80200684:	00c51563          	bne	a0,a2,8020068e <yield+0x150>
    80200688:	4388                	lw	a0,0(a5)
    8020068a:	02a04963          	bgtz	a0,802006bc <yield+0x17e>
    8020068e:	071d                	addi	a4,a4,7
    80200690:	41f7551b          	sraiw	a0,a4,0x1f
    80200694:	01d5551b          	srliw	a0,a0,0x1d
    80200698:	953a                	add	a0,a0,a4
    8020069a:	9961                	andi	a0,a0,-8
    8020069c:	9f09                	subw	a4,a4,a0
    8020069e:	02b70533          	mul	a0,a4,a1
    802006a2:	9536                	add	a0,a0,a3
    802006a4:	4148                	lw	a0,4(a0)
    802006a6:	00c51a63          	bne	a0,a2,802006ba <yield+0x17c>
    802006aa:	6509                	lui	a0,0x2
    802006ac:	2561                	addiw	a0,a0,24
    802006ae:	02a707b3          	mul	a5,a4,a0
    802006b2:	97b6                	add	a5,a5,a3
    802006b4:	4388                	lw	a0,0(a5)
    802006b6:	00a04363          	bgtz	a0,802006bc <yield+0x17e>
    802006ba:	87c2                	mv	a5,a6
    802006bc:	02578d63          	beq	a5,t0,802006f6 <yield+0x1b8>
    802006c0:	6b88                	ld	a0,16(a5)
    802006c2:	8131                	srli	a0,a0,0xc
    802006c4:	55fd                	li	a1,-1
    802006c6:	15fe                	slli	a1,a1,0x3f
    802006c8:	8d4d                	or	a0,a0,a1
    802006ca:	6589                	lui	a1,0x2
    802006cc:	25e1                	addiw	a1,a1,24
    802006ce:	95be                	add	a1,a1,a5
    802006d0:	12000073          	sfence.vma
    802006d4:	18051073          	csrw	satp,a0
    802006d8:	12000073          	sfence.vma
    802006dc:	14059073          	csrw	sscratch,a1
    802006e0:	c128b503          	ld	a0,-1006(a7)
    802006e4:	0521                	addi	a0,a0,8
    802006e6:	00878593          	addi	a1,a5,8
    802006ea:	c0f8b923          	sd	a5,-1006(a7)
    802006ee:	00000317          	auipc	t1,0x0
    802006f2:	a1030067          	jr	-1520(t1) # 802000fe <switch_context>
    802006f6:	8082                	ret

00000000802006f8 <delay>:
    802006f8:	01c9c537          	lui	a0,0x1c9c
    802006fc:	38050513          	addi	a0,a0,896 # 1c9c380 <_binary_shell_bin_size+0x1c8c060>
    80200700:	357d                	addiw	a0,a0,-1
    80200702:	0001                	nop
    80200704:	fd75                	bnez	a0,80200700 <delay+0x8>
    80200706:	8082                	ret

0000000080200708 <proc_a_entry>:
    80200708:	1141                	addi	sp,sp,-16
    8020070a:	e406                	sd	ra,8(sp)
    8020070c:	e022                	sd	s0,0(sp)
    8020070e:	00000517          	auipc	a0,0x0
    80200712:	52650513          	addi	a0,a0,1318 # 80200c34 <printf+0x254>
    80200716:	00000097          	auipc	ra,0x0
    8020071a:	2ca080e7          	jalr	714(ra) # 802009e0 <printf>
    8020071e:	01c9c537          	lui	a0,0x1c9c
    80200722:	38050413          	addi	s0,a0,896 # 1c9c380 <_binary_shell_bin_size+0x1c8c060>
    80200726:	04100513          	li	a0,65
    8020072a:	4885                	li	a7,1
    8020072c:	4581                	li	a1,0
    8020072e:	4601                	li	a2,0
    80200730:	4681                	li	a3,0
    80200732:	4701                	li	a4,0
    80200734:	4781                	li	a5,0
    80200736:	4801                	li	a6,0
    80200738:	00000073          	ecall
    8020073c:	00000097          	auipc	ra,0x0
    80200740:	e02080e7          	jalr	-510(ra) # 8020053e <yield>
    80200744:	8522                	mv	a0,s0
    80200746:	357d                	addiw	a0,a0,-1
    80200748:	0001                	nop
    8020074a:	fd75                	bnez	a0,80200746 <proc_a_entry+0x3e>
    8020074c:	bfe9                	j	80200726 <proc_a_entry+0x1e>

000000008020074e <proc_b_entry>:
    8020074e:	1141                	addi	sp,sp,-16
    80200750:	e406                	sd	ra,8(sp)
    80200752:	e022                	sd	s0,0(sp)
    80200754:	00000517          	auipc	a0,0x0
    80200758:	4cc50513          	addi	a0,a0,1228 # 80200c20 <printf+0x240>
    8020075c:	00000097          	auipc	ra,0x0
    80200760:	284080e7          	jalr	644(ra) # 802009e0 <printf>
    80200764:	01c9c537          	lui	a0,0x1c9c
    80200768:	38050413          	addi	s0,a0,896 # 1c9c380 <_binary_shell_bin_size+0x1c8c060>
    8020076c:	04200513          	li	a0,66
    80200770:	4885                	li	a7,1
    80200772:	4581                	li	a1,0
    80200774:	4601                	li	a2,0
    80200776:	4681                	li	a3,0
    80200778:	4701                	li	a4,0
    8020077a:	4781                	li	a5,0
    8020077c:	4801                	li	a6,0
    8020077e:	00000073          	ecall
    80200782:	00000097          	auipc	ra,0x0
    80200786:	dbc080e7          	jalr	-580(ra) # 8020053e <yield>
    8020078a:	8522                	mv	a0,s0
    8020078c:	357d                	addiw	a0,a0,-1
    8020078e:	0001                	nop
    80200790:	fd75                	bnez	a0,8020078c <proc_b_entry+0x3e>
    80200792:	bfe9                	j	8020076c <proc_b_entry+0x1e>

0000000080200794 <handle_syscall>:
    80200794:	06954583          	lbu	a1,105(a0)
    80200798:	06854603          	lbu	a2,104(a0)
    8020079c:	06a54683          	lbu	a3,106(a0)
    802007a0:	06b54703          	lbu	a4,107(a0)
    802007a4:	05a2                	slli	a1,a1,0x8
    802007a6:	8dd1                	or	a1,a1,a2
    802007a8:	06c2                	slli	a3,a3,0x10
    802007aa:	0762                	slli	a4,a4,0x18
    802007ac:	8ed9                	or	a3,a3,a4
    802007ae:	8dd5                	or	a1,a1,a3
    802007b0:	06d54603          	lbu	a2,109(a0)
    802007b4:	06c54683          	lbu	a3,108(a0)
    802007b8:	06e54703          	lbu	a4,110(a0)
    802007bc:	06f54783          	lbu	a5,111(a0)
    802007c0:	0622                	slli	a2,a2,0x8
    802007c2:	8e55                	or	a2,a2,a3
    802007c4:	0742                	slli	a4,a4,0x10
    802007c6:	07e2                	slli	a5,a5,0x18
    802007c8:	8f5d                	or	a4,a4,a5
    802007ca:	8e59                	or	a2,a2,a4
    802007cc:	1602                	slli	a2,a2,0x20
    802007ce:	00b666b3          	or	a3,a2,a1
    802007d2:	4585                	li	a1,1
    802007d4:	00b69e63          	bne	a3,a1,802007f0 <handle_syscall+0x5c>
    802007d8:	05054503          	lbu	a0,80(a0)
    802007dc:	4885                	li	a7,1
    802007de:	4581                	li	a1,0
    802007e0:	4601                	li	a2,0
    802007e2:	4681                	li	a3,0
    802007e4:	4701                	li	a4,0
    802007e6:	4781                	li	a5,0
    802007e8:	4801                	li	a6,0
    802007ea:	00000073          	ecall
    802007ee:	8082                	ret
    802007f0:	1141                	addi	sp,sp,-16
    802007f2:	e406                	sd	ra,8(sp)
    802007f4:	00000517          	auipc	a0,0x0
    802007f8:	45450513          	addi	a0,a0,1108 # 80200c48 <printf+0x268>
    802007fc:	00000597          	auipc	a1,0x0
    80200800:	3e058593          	addi	a1,a1,992 # 80200bdc <printf+0x1fc>
    80200804:	1a200613          	li	a2,418
    80200808:	00000097          	auipc	ra,0x0
    8020080c:	1d8080e7          	jalr	472(ra) # 802009e0 <printf>
    80200810:	60a2                	ld	ra,8(sp)
    80200812:	0141                	addi	sp,sp,16
    80200814:	a001                	j	80200814 <handle_syscall+0x80>

0000000080200816 <handle_trap>:
    80200816:	1141                	addi	sp,sp,-16
    80200818:	e406                	sd	ra,8(sp)
    8020081a:	142026f3          	csrr	a3,scause
    8020081e:	14302773          	csrr	a4,stval
    80200822:	45a1                	li	a1,8
    80200824:	141022f3          	csrr	t0,sepc
    80200828:	06b69563          	bne	a3,a1,80200892 <handle_trap+0x7c>
    8020082c:	06954583          	lbu	a1,105(a0)
    80200830:	06854603          	lbu	a2,104(a0)
    80200834:	06a54683          	lbu	a3,106(a0)
    80200838:	06b54703          	lbu	a4,107(a0)
    8020083c:	05a2                	slli	a1,a1,0x8
    8020083e:	8dd1                	or	a1,a1,a2
    80200840:	06c2                	slli	a3,a3,0x10
    80200842:	0762                	slli	a4,a4,0x18
    80200844:	8ed9                	or	a3,a3,a4
    80200846:	8dd5                	or	a1,a1,a3
    80200848:	06d54603          	lbu	a2,109(a0)
    8020084c:	06c54683          	lbu	a3,108(a0)
    80200850:	06e54703          	lbu	a4,110(a0)
    80200854:	06f54783          	lbu	a5,111(a0)
    80200858:	0622                	slli	a2,a2,0x8
    8020085a:	8e55                	or	a2,a2,a3
    8020085c:	0742                	slli	a4,a4,0x10
    8020085e:	07e2                	slli	a5,a5,0x18
    80200860:	8f5d                	or	a4,a4,a5
    80200862:	8e59                	or	a2,a2,a4
    80200864:	1602                	slli	a2,a2,0x20
    80200866:	00b666b3          	or	a3,a2,a1
    8020086a:	4585                	li	a1,1
    8020086c:	04b69363          	bne	a3,a1,802008b2 <handle_trap+0x9c>
    80200870:	05054503          	lbu	a0,80(a0)
    80200874:	4885                	li	a7,1
    80200876:	4581                	li	a1,0
    80200878:	4601                	li	a2,0
    8020087a:	4681                	li	a3,0
    8020087c:	4701                	li	a4,0
    8020087e:	4781                	li	a5,0
    80200880:	4801                	li	a6,0
    80200882:	00000073          	ecall
    80200886:	0291                	addi	t0,t0,4
    80200888:	14129073          	csrw	sepc,t0
    8020088c:	60a2                	ld	ra,8(sp)
    8020088e:	0141                	addi	sp,sp,16
    80200890:	8082                	ret
    80200892:	00000517          	auipc	a0,0x0
    80200896:	47650513          	addi	a0,a0,1142 # 80200d08 <$d.1+0x36>
    8020089a:	00000597          	auipc	a1,0x0
    8020089e:	34258593          	addi	a1,a1,834 # 80200bdc <printf+0x1fc>
    802008a2:	1b000613          	li	a2,432
    802008a6:	8796                	mv	a5,t0
    802008a8:	00000097          	auipc	ra,0x0
    802008ac:	138080e7          	jalr	312(ra) # 802009e0 <printf>
    802008b0:	a001                	j	802008b0 <handle_trap+0x9a>
    802008b2:	00000517          	auipc	a0,0x0
    802008b6:	39650513          	addi	a0,a0,918 # 80200c48 <printf+0x268>
    802008ba:	00000597          	auipc	a1,0x0
    802008be:	32258593          	addi	a1,a1,802 # 80200bdc <printf+0x1fc>
    802008c2:	1a200613          	li	a2,418
    802008c6:	00000097          	auipc	ra,0x0
    802008ca:	11a080e7          	jalr	282(ra) # 802009e0 <printf>
    802008ce:	a001                	j	802008ce <handle_trap+0xb8>

00000000802008d0 <kernel_main>:
    802008d0:	1141                	addi	sp,sp,-16
    802008d2:	e406                	sd	ra,8(sp)
    802008d4:	00010517          	auipc	a0,0x10
    802008d8:	7b450513          	addi	a0,a0,1972 # 80211088 <procs>
    802008dc:	00021597          	auipc	a1,0x21
    802008e0:	88c58613          	addi	a2,a1,-1908 # 80221168 <__bss_end>
    802008e4:	8e09                	sub	a2,a2,a0
    802008e6:	4581                	li	a1,0
    802008e8:	00000097          	auipc	ra,0x0
    802008ec:	074080e7          	jalr	116(ra) # 8020095c <memset>
    802008f0:	fffff517          	auipc	a0,0xfffff
    802008f4:	75050513          	addi	a0,a0,1872 # 80200040 <kernel_entry>
    802008f8:	10551073          	csrw	stvec,a0
    802008fc:	4501                	li	a0,0
    802008fe:	4581                	li	a1,0
    80200900:	00000097          	auipc	ra,0x0
    80200904:	a16080e7          	jalr	-1514(ra) # 80200316 <create_process>
    80200908:	00021597          	auipc	a1,0x21
    8020090c:	84a5b023          	sd	a0,-1984(a1) # 80221148 <idle_proc>
    80200910:	00052023          	sw	zero,0(a0)
    80200914:	00021597          	auipc	a1,0x21
    80200918:	82a5be23          	sd	a0,-1988(a1) # 80221150 <current_proc>
    8020091c:	00000517          	auipc	a0,0x0
    80200920:	44450513          	addi	a0,a0,1092 # 80200d60 <_binary_shell_bin_start>
    80200924:	00010597          	auipc	a1,0x10
    80200928:	75c58593          	addi	a1,a1,1884 # 80211080 <_binary_shell_bin_end>
    8020092c:	8d89                	sub	a1,a1,a0
    8020092e:	00000097          	auipc	ra,0x0
    80200932:	9e8080e7          	jalr	-1560(ra) # 80200316 <create_process>
    80200936:	00000097          	auipc	ra,0x0
    8020093a:	c08080e7          	jalr	-1016(ra) # 8020053e <yield>
    8020093e:	00000517          	auipc	a0,0x0
    80200942:	2a750513          	addi	a0,a0,679 # 80200be5 <printf+0x205>
    80200946:	00000597          	auipc	a1,0x0
    8020094a:	29658593          	addi	a1,a1,662 # 80200bdc <printf+0x1fc>
    8020094e:	1db00613          	li	a2,475
    80200952:	00000097          	auipc	ra,0x0
    80200956:	08e080e7          	jalr	142(ra) # 802009e0 <printf>
    8020095a:	a001                	j	8020095a <kernel_main+0x8a>

000000008020095c <memset>:
    8020095c:	ca11                	beqz	a2,80200970 <memset+0x14>
    8020095e:	962a                	add	a2,a2,a0
    80200960:	86aa                	mv	a3,a0
    80200962:	00168713          	addi	a4,a3,1
    80200966:	00b68023          	sb	a1,0(a3)
    8020096a:	86ba                	mv	a3,a4
    8020096c:	fec71be3          	bne	a4,a2,80200962 <memset+0x6>
    80200970:	8082                	ret

0000000080200972 <memcpy>:
    80200972:	ce09                	beqz	a2,8020098c <memcpy+0x1a>
    80200974:	962a                	add	a2,a2,a0
    80200976:	86aa                	mv	a3,a0
    80200978:	0005c703          	lbu	a4,0(a1)
    8020097c:	0585                	addi	a1,a1,1
    8020097e:	00168793          	addi	a5,a3,1
    80200982:	00e68023          	sb	a4,0(a3)
    80200986:	86be                	mv	a3,a5
    80200988:	fec798e3          	bne	a5,a2,80200978 <memcpy+0x6>
    8020098c:	8082                	ret

000000008020098e <strcpy>:
    8020098e:	0005c603          	lbu	a2,0(a1)
    80200992:	86aa                	mv	a3,a0
    80200994:	ce01                	beqz	a2,802009ac <strcpy+0x1e>
    80200996:	0585                	addi	a1,a1,1
    80200998:	872a                	mv	a4,a0
    8020099a:	00c70023          	sb	a2,0(a4)
    8020099e:	0005c603          	lbu	a2,0(a1)
    802009a2:	00170693          	addi	a3,a4,1
    802009a6:	0585                	addi	a1,a1,1
    802009a8:	8736                	mv	a4,a3
    802009aa:	fa65                	bnez	a2,8020099a <strcpy+0xc>
    802009ac:	00068023          	sb	zero,0(a3)
    802009b0:	8082                	ret

00000000802009b2 <strcmp>:
    802009b2:	00054603          	lbu	a2,0(a0)
    802009b6:	c205                	beqz	a2,802009d6 <strcmp+0x24>
    802009b8:	0505                	addi	a0,a0,1
    802009ba:	0005c683          	lbu	a3,0(a1)
    802009be:	0ff67713          	andi	a4,a2,255
    802009c2:	00d71763          	bne	a4,a3,802009d0 <strcmp+0x1e>
    802009c6:	00054603          	lbu	a2,0(a0)
    802009ca:	0585                	addi	a1,a1,1
    802009cc:	0505                	addi	a0,a0,1
    802009ce:	f675                	bnez	a2,802009ba <strcmp+0x8>
    802009d0:	0ff67513          	andi	a0,a2,255
    802009d4:	a011                	j	802009d8 <strcmp+0x26>
    802009d6:	4501                	li	a0,0
    802009d8:	0005c583          	lbu	a1,0(a1)
    802009dc:	8d0d                	sub	a0,a0,a1
    802009de:	8082                	ret

00000000802009e0 <printf>:
    802009e0:	7171                	addi	sp,sp,-176
    802009e2:	f486                	sd	ra,104(sp)
    802009e4:	f0a2                	sd	s0,96(sp)
    802009e6:	eca6                	sd	s1,88(sp)
    802009e8:	e8ca                	sd	s2,80(sp)
    802009ea:	e4ce                	sd	s3,72(sp)
    802009ec:	e0d2                	sd	s4,64(sp)
    802009ee:	fc56                	sd	s5,56(sp)
    802009f0:	f85a                	sd	s6,48(sp)
    802009f2:	f45e                	sd	s7,40(sp)
    802009f4:	f062                	sd	s8,32(sp)
    802009f6:	ec66                	sd	s9,24(sp)
    802009f8:	e86a                	sd	s10,16(sp)
    802009fa:	e46e                	sd	s11,8(sp)
    802009fc:	842a                	mv	s0,a0
    802009fe:	f546                	sd	a7,168(sp)
    80200a00:	f142                	sd	a6,160(sp)
    80200a02:	ed3e                	sd	a5,152(sp)
    80200a04:	e93a                	sd	a4,144(sp)
    80200a06:	e536                	sd	a3,136(sp)
    80200a08:	e132                	sd	a2,128(sp)
    80200a0a:	fcae                	sd	a1,120(sp)
    80200a0c:	18a8                	addi	a0,sp,120
    80200a0e:	e02a                	sd	a0,0(sp)
    80200a10:	02500a13          	li	s4,37
    80200a14:	07200913          	li	s2,114
    80200a18:	4b29                	li	s6,10
    80200a1a:	4aa5                	li	s5,9
    80200a1c:	ccccd537          	lui	a0,0xccccd
    80200a20:	ccd50d13          	addi	s10,a0,-819 # ffffffffcccccccd <__free_ram_end+0xffffffff48a8accd>
    80200a24:	1d02                	slli	s10,s10,0x20
    80200a26:	07300b93          	li	s7,115
    80200a2a:	07800c13          	li	s8,120
    80200a2e:	00000517          	auipc	a0,0x0
    80200a32:	2a450c93          	addi	s9,a0,676 # 80200cd2 <$d.1>
    80200a36:	a021                	j	80200a3e <printf+0x5e>
    80200a38:	16050d63          	beqz	a0,80200bb2 <printf+0x1d2>
    80200a3c:	0405                	addi	s0,s0,1
    80200a3e:	00044503          	lbu	a0,0(s0)
    80200a42:	01450a63          	beq	a0,s4,80200a56 <printf+0x76>
    80200a46:	16050c63          	beqz	a0,80200bbe <printf+0x1de>
    80200a4a:	fffff097          	auipc	ra,0xfffff
    80200a4e:	5cc080e7          	jalr	1484(ra) # 80200016 <putchar>
    80200a52:	0405                	addi	s0,s0,1
    80200a54:	b7ed                	j	80200a3e <printf+0x5e>
    80200a56:	00144503          	lbu	a0,1(s0)
    80200a5a:	0405                	addi	s0,s0,1
    80200a5c:	02a94463          	blt	s2,a0,80200a84 <printf+0xa4>
    80200a60:	ff4505e3          	beq	a0,s4,80200a4a <printf+0x6a>
    80200a64:	06400593          	li	a1,100
    80200a68:	fcb518e3          	bne	a0,a1,80200a38 <printf+0x58>
    80200a6c:	6502                	ld	a0,0(sp)
    80200a6e:	00850593          	addi	a1,a0,8
    80200a72:	e02e                	sd	a1,0(sp)
    80200a74:	00052d83          	lw	s11,0(a0)
    80200a78:	0e0dc463          	bltz	s11,80200b60 <printf+0x180>
    80200a7c:	4505                	li	a0,1
    80200a7e:	116de363          	bltu	s11,s6,80200b84 <printf+0x1a4>
    80200a82:	a8d5                	j	80200b76 <printf+0x196>
    80200a84:	0b750963          	beq	a0,s7,80200b36 <printf+0x156>
    80200a88:	fb851ae3          	bne	a0,s8,80200a3c <printf+0x5c>
    80200a8c:	6502                	ld	a0,0(sp)
    80200a8e:	00850593          	addi	a1,a0,8
    80200a92:	e02e                	sd	a1,0(sp)
    80200a94:	00056483          	lwu	s1,0(a0)
    80200a98:	01c4d513          	srli	a0,s1,0x1c
    80200a9c:	9566                	add	a0,a0,s9
    80200a9e:	00054503          	lbu	a0,0(a0)
    80200aa2:	fffff097          	auipc	ra,0xfffff
    80200aa6:	574080e7          	jalr	1396(ra) # 80200016 <putchar>
    80200aaa:	02449513          	slli	a0,s1,0x24
    80200aae:	9171                	srli	a0,a0,0x3c
    80200ab0:	9566                	add	a0,a0,s9
    80200ab2:	00054503          	lbu	a0,0(a0)
    80200ab6:	fffff097          	auipc	ra,0xfffff
    80200aba:	560080e7          	jalr	1376(ra) # 80200016 <putchar>
    80200abe:	02849513          	slli	a0,s1,0x28
    80200ac2:	9171                	srli	a0,a0,0x3c
    80200ac4:	9566                	add	a0,a0,s9
    80200ac6:	00054503          	lbu	a0,0(a0)
    80200aca:	fffff097          	auipc	ra,0xfffff
    80200ace:	54c080e7          	jalr	1356(ra) # 80200016 <putchar>
    80200ad2:	02c49513          	slli	a0,s1,0x2c
    80200ad6:	9171                	srli	a0,a0,0x3c
    80200ad8:	9566                	add	a0,a0,s9
    80200ada:	00054503          	lbu	a0,0(a0)
    80200ade:	fffff097          	auipc	ra,0xfffff
    80200ae2:	538080e7          	jalr	1336(ra) # 80200016 <putchar>
    80200ae6:	03049513          	slli	a0,s1,0x30
    80200aea:	9171                	srli	a0,a0,0x3c
    80200aec:	9566                	add	a0,a0,s9
    80200aee:	00054503          	lbu	a0,0(a0)
    80200af2:	fffff097          	auipc	ra,0xfffff
    80200af6:	524080e7          	jalr	1316(ra) # 80200016 <putchar>
    80200afa:	03449513          	slli	a0,s1,0x34
    80200afe:	9171                	srli	a0,a0,0x3c
    80200b00:	9566                	add	a0,a0,s9
    80200b02:	00054503          	lbu	a0,0(a0)
    80200b06:	fffff097          	auipc	ra,0xfffff
    80200b0a:	510080e7          	jalr	1296(ra) # 80200016 <putchar>
    80200b0e:	03849513          	slli	a0,s1,0x38
    80200b12:	9171                	srli	a0,a0,0x3c
    80200b14:	9566                	add	a0,a0,s9
    80200b16:	00054503          	lbu	a0,0(a0)
    80200b1a:	fffff097          	auipc	ra,0xfffff
    80200b1e:	4fc080e7          	jalr	1276(ra) # 80200016 <putchar>
    80200b22:	88bd                	andi	s1,s1,15
    80200b24:	94e6                	add	s1,s1,s9
    80200b26:	0004c503          	lbu	a0,0(s1) # 1000 <$d.10+0x679>
    80200b2a:	fffff097          	auipc	ra,0xfffff
    80200b2e:	4ec080e7          	jalr	1260(ra) # 80200016 <putchar>
    80200b32:	0405                	addi	s0,s0,1
    80200b34:	b729                	j	80200a3e <printf+0x5e>
    80200b36:	6502                	ld	a0,0(sp)
    80200b38:	00850593          	addi	a1,a0,8
    80200b3c:	e02e                	sd	a1,0(sp)
    80200b3e:	6104                	ld	s1,0(a0)
    80200b40:	0004c503          	lbu	a0,0(s1)
    80200b44:	ee050ce3          	beqz	a0,80200a3c <printf+0x5c>
    80200b48:	0485                	addi	s1,s1,1
    80200b4a:	0ff57513          	andi	a0,a0,255
    80200b4e:	fffff097          	auipc	ra,0xfffff
    80200b52:	4c8080e7          	jalr	1224(ra) # 80200016 <putchar>
    80200b56:	0004c503          	lbu	a0,0(s1)
    80200b5a:	0485                	addi	s1,s1,1
    80200b5c:	f57d                	bnez	a0,80200b4a <printf+0x16a>
    80200b5e:	bdf9                	j	80200a3c <printf+0x5c>
    80200b60:	02d00513          	li	a0,45
    80200b64:	fffff097          	auipc	ra,0xfffff
    80200b68:	4b2080e7          	jalr	1202(ra) # 80200016 <putchar>
    80200b6c:	41b00dbb          	negw	s11,s11
    80200b70:	4505                	li	a0,1
    80200b72:	016de963          	bltu	s11,s6,80200b84 <printf+0x1a4>
    80200b76:	4505                	li	a0,1
    80200b78:	0365053b          	mulw	a0,a0,s6
    80200b7c:	02add5bb          	divuw	a1,s11,a0
    80200b80:	febaece3          	bltu	s5,a1,80200b78 <printf+0x198>
    80200b84:	84aa                	mv	s1,a0
    80200b86:	02add9bb          	divuw	s3,s11,a0
    80200b8a:	03098513          	addi	a0,s3,48
    80200b8e:	0ff57513          	andi	a0,a0,255
    80200b92:	fffff097          	auipc	ra,0xfffff
    80200b96:	484080e7          	jalr	1156(ra) # 80200016 <putchar>
    80200b9a:	02998533          	mul	a0,s3,s1
    80200b9e:	40ad8dbb          	subw	s11,s11,a0
    80200ba2:	02049513          	slli	a0,s1,0x20
    80200ba6:	03a53533          	mulhu	a0,a0,s10
    80200baa:	910d                	srli	a0,a0,0x23
    80200bac:	fd64fce3          	bgeu	s1,s6,80200b84 <printf+0x1a4>
    80200bb0:	b571                	j	80200a3c <printf+0x5c>
    80200bb2:	02500513          	li	a0,37
    80200bb6:	fffff097          	auipc	ra,0xfffff
    80200bba:	460080e7          	jalr	1120(ra) # 80200016 <putchar>
    80200bbe:	70a6                	ld	ra,104(sp)
    80200bc0:	7406                	ld	s0,96(sp)
    80200bc2:	64e6                	ld	s1,88(sp)
    80200bc4:	6946                	ld	s2,80(sp)
    80200bc6:	69a6                	ld	s3,72(sp)
    80200bc8:	6a06                	ld	s4,64(sp)
    80200bca:	7ae2                	ld	s5,56(sp)
    80200bcc:	7b42                	ld	s6,48(sp)
    80200bce:	7ba2                	ld	s7,40(sp)
    80200bd0:	7c02                	ld	s8,32(sp)
    80200bd2:	6ce2                	ld	s9,24(sp)
    80200bd4:	6d42                	ld	s10,16(sp)
    80200bd6:	6da2                	ld	s11,8(sp)
    80200bd8:	614d                	addi	sp,sp,176
    80200bda:	8082                	ret
