
shell.elf:     file format elf64-littleriscv


Disassembly of section .text:

0000000001000000 <start>:
 1000000:	01010537          	lui	a0,0x1010
 1000004:	32050513          	addi	a0,a0,800 # 1010320 <__stack_top>
 1000008:	812a                	mv	sp,a0
 100000a:	00000097          	auipc	ra,0x0
 100000e:	010080e7          	jalr	16(ra) # 100001a <main>
 1000012:	00000097          	auipc	ra,0x0
 1000016:	064080e7          	jalr	100(ra) # 1000076 <exit>

000000000100001a <main>:
 100001a:	1141                	addi	sp,sp,-16
 100001c:	e406                	sd	ra,8(sp)
 100001e:	05300513          	li	a0,83
 1000022:	00000097          	auipc	ra,0x0
 1000026:	01c080e7          	jalr	28(ra) # 100003e <putchar>
 100002a:	a001                	j	100002a <main+0x10>

000000000100002c <syscall>:
 100002c:	872a                	mv	a4,a0
 100002e:	852e                	mv	a0,a1
 1000030:	85b2                	mv	a1,a2
 1000032:	8636                	mv	a2,a3
 1000034:	86ba                	mv	a3,a4
 1000036:	00000073          	ecall
 100003a:	2501                	sext.w	a0,a0
 100003c:	8082                	ret

000000000100003e <putchar>:
 100003e:	4685                	li	a3,1
 1000040:	4581                	li	a1,0
 1000042:	4601                	li	a2,0
 1000044:	00000073          	ecall
 1000048:	8082                	ret

000000000100004a <getchar>:
 100004a:	4689                	li	a3,2
 100004c:	4501                	li	a0,0
 100004e:	4581                	li	a1,0
 1000050:	4601                	li	a2,0
 1000052:	00000073          	ecall
 1000056:	2501                	sext.w	a0,a0
 1000058:	8082                	ret

000000000100005a <readfile>:
 100005a:	2501                	sext.w	a0,a0
 100005c:	2581                	sext.w	a1,a1
 100005e:	4691                	li	a3,4
 1000060:	00000073          	ecall
 1000064:	2501                	sext.w	a0,a0
 1000066:	8082                	ret

0000000001000068 <writefile>:
 1000068:	2501                	sext.w	a0,a0
 100006a:	2581                	sext.w	a1,a1
 100006c:	4695                	li	a3,5
 100006e:	00000073          	ecall
 1000072:	2501                	sext.w	a0,a0
 1000074:	8082                	ret

0000000001000076 <exit>:
 1000076:	468d                	li	a3,3
 1000078:	4501                	li	a0,0
 100007a:	4581                	li	a1,0
 100007c:	4601                	li	a2,0
 100007e:	00000073          	ecall
 1000082:	a001                	j	1000082 <exit+0xc>

0000000001000084 <memset>:
 1000084:	ca11                	beqz	a2,1000098 <memset+0x14>
 1000086:	962a                	add	a2,a2,a0
 1000088:	86aa                	mv	a3,a0
 100008a:	00168713          	addi	a4,a3,1
 100008e:	00b68023          	sb	a1,0(a3)
 1000092:	86ba                	mv	a3,a4
 1000094:	fec71be3          	bne	a4,a2,100008a <memset+0x6>
 1000098:	8082                	ret

000000000100009a <memcpy>:
 100009a:	ce09                	beqz	a2,10000b4 <memcpy+0x1a>
 100009c:	962a                	add	a2,a2,a0
 100009e:	86aa                	mv	a3,a0
 10000a0:	0005c703          	lbu	a4,0(a1)
 10000a4:	0585                	addi	a1,a1,1
 10000a6:	00168793          	addi	a5,a3,1
 10000aa:	00e68023          	sb	a4,0(a3)
 10000ae:	86be                	mv	a3,a5
 10000b0:	fec798e3          	bne	a5,a2,10000a0 <memcpy+0x6>
 10000b4:	8082                	ret

00000000010000b6 <strcpy>:
 10000b6:	0005c603          	lbu	a2,0(a1)
 10000ba:	86aa                	mv	a3,a0
 10000bc:	ce01                	beqz	a2,10000d4 <strcpy+0x1e>
 10000be:	0585                	addi	a1,a1,1
 10000c0:	872a                	mv	a4,a0
 10000c2:	00c70023          	sb	a2,0(a4)
 10000c6:	0005c603          	lbu	a2,0(a1)
 10000ca:	00170693          	addi	a3,a4,1
 10000ce:	0585                	addi	a1,a1,1
 10000d0:	8736                	mv	a4,a3
 10000d2:	fa65                	bnez	a2,10000c2 <strcpy+0xc>
 10000d4:	00068023          	sb	zero,0(a3)
 10000d8:	8082                	ret

00000000010000da <strcmp>:
 10000da:	00054603          	lbu	a2,0(a0)
 10000de:	c205                	beqz	a2,10000fe <strcmp+0x24>
 10000e0:	0505                	addi	a0,a0,1
 10000e2:	0005c683          	lbu	a3,0(a1)
 10000e6:	0ff67713          	andi	a4,a2,255
 10000ea:	00d71763          	bne	a4,a3,10000f8 <strcmp+0x1e>
 10000ee:	00054603          	lbu	a2,0(a0)
 10000f2:	0585                	addi	a1,a1,1
 10000f4:	0505                	addi	a0,a0,1
 10000f6:	f675                	bnez	a2,10000e2 <strcmp+0x8>
 10000f8:	0ff67513          	andi	a0,a2,255
 10000fc:	a011                	j	1000100 <strcmp+0x26>
 10000fe:	4501                	li	a0,0
 1000100:	0005c583          	lbu	a1,0(a1)
 1000104:	8d0d                	sub	a0,a0,a1
 1000106:	8082                	ret

0000000001000108 <printf>:
 1000108:	7171                	addi	sp,sp,-176
 100010a:	f486                	sd	ra,104(sp)
 100010c:	f0a2                	sd	s0,96(sp)
 100010e:	eca6                	sd	s1,88(sp)
 1000110:	e8ca                	sd	s2,80(sp)
 1000112:	e4ce                	sd	s3,72(sp)
 1000114:	e0d2                	sd	s4,64(sp)
 1000116:	fc56                	sd	s5,56(sp)
 1000118:	f85a                	sd	s6,48(sp)
 100011a:	f45e                	sd	s7,40(sp)
 100011c:	f062                	sd	s8,32(sp)
 100011e:	ec66                	sd	s9,24(sp)
 1000120:	e86a                	sd	s10,16(sp)
 1000122:	e46e                	sd	s11,8(sp)
 1000124:	842a                	mv	s0,a0
 1000126:	f546                	sd	a7,168(sp)
 1000128:	f142                	sd	a6,160(sp)
 100012a:	ed3e                	sd	a5,152(sp)
 100012c:	e93a                	sd	a4,144(sp)
 100012e:	e536                	sd	a3,136(sp)
 1000130:	e132                	sd	a2,128(sp)
 1000132:	fcae                	sd	a1,120(sp)
 1000134:	18a8                	addi	a0,sp,120
 1000136:	e02a                	sd	a0,0(sp)
 1000138:	02500a13          	li	s4,37
 100013c:	07200913          	li	s2,114
 1000140:	4b29                	li	s6,10
 1000142:	4aa5                	li	s5,9
 1000144:	ccccd537          	lui	a0,0xccccd
 1000148:	ccd50d13          	addi	s10,a0,-819 # ffffffffcccccccd <__stack_top+0xffffffffcbcbc9ad>
 100014c:	1d02                	slli	s10,s10,0x20
 100014e:	07300b93          	li	s7,115
 1000152:	07800c13          	li	s8,120
 1000156:	01000537          	lui	a0,0x1000
 100015a:	30450c93          	addi	s9,a0,772 # 1000304 <$d.1>
 100015e:	a021                	j	1000166 <printf+0x5e>
 1000160:	16050d63          	beqz	a0,10002da <printf+0x1d2>
 1000164:	0405                	addi	s0,s0,1
 1000166:	00044503          	lbu	a0,0(s0)
 100016a:	01450a63          	beq	a0,s4,100017e <printf+0x76>
 100016e:	16050c63          	beqz	a0,10002e6 <printf+0x1de>
 1000172:	00000097          	auipc	ra,0x0
 1000176:	ecc080e7          	jalr	-308(ra) # 100003e <putchar>
 100017a:	0405                	addi	s0,s0,1
 100017c:	b7ed                	j	1000166 <printf+0x5e>
 100017e:	00144503          	lbu	a0,1(s0)
 1000182:	0405                	addi	s0,s0,1
 1000184:	02a94463          	blt	s2,a0,10001ac <printf+0xa4>
 1000188:	ff4505e3          	beq	a0,s4,1000172 <printf+0x6a>
 100018c:	06400593          	li	a1,100
 1000190:	fcb518e3          	bne	a0,a1,1000160 <printf+0x58>
 1000194:	6502                	ld	a0,0(sp)
 1000196:	00850593          	addi	a1,a0,8
 100019a:	e02e                	sd	a1,0(sp)
 100019c:	00052d83          	lw	s11,0(a0)
 10001a0:	0e0dc463          	bltz	s11,1000288 <printf+0x180>
 10001a4:	4505                	li	a0,1
 10001a6:	116de363          	bltu	s11,s6,10002ac <printf+0x1a4>
 10001aa:	a8d5                	j	100029e <printf+0x196>
 10001ac:	0b750963          	beq	a0,s7,100025e <printf+0x156>
 10001b0:	fb851ae3          	bne	a0,s8,1000164 <printf+0x5c>
 10001b4:	6502                	ld	a0,0(sp)
 10001b6:	00850593          	addi	a1,a0,8
 10001ba:	e02e                	sd	a1,0(sp)
 10001bc:	00056483          	lwu	s1,0(a0)
 10001c0:	01c4d513          	srli	a0,s1,0x1c
 10001c4:	9566                	add	a0,a0,s9
 10001c6:	00054503          	lbu	a0,0(a0)
 10001ca:	00000097          	auipc	ra,0x0
 10001ce:	e74080e7          	jalr	-396(ra) # 100003e <putchar>
 10001d2:	02449513          	slli	a0,s1,0x24
 10001d6:	9171                	srli	a0,a0,0x3c
 10001d8:	9566                	add	a0,a0,s9
 10001da:	00054503          	lbu	a0,0(a0)
 10001de:	00000097          	auipc	ra,0x0
 10001e2:	e60080e7          	jalr	-416(ra) # 100003e <putchar>
 10001e6:	02849513          	slli	a0,s1,0x28
 10001ea:	9171                	srli	a0,a0,0x3c
 10001ec:	9566                	add	a0,a0,s9
 10001ee:	00054503          	lbu	a0,0(a0)
 10001f2:	00000097          	auipc	ra,0x0
 10001f6:	e4c080e7          	jalr	-436(ra) # 100003e <putchar>
 10001fa:	02c49513          	slli	a0,s1,0x2c
 10001fe:	9171                	srli	a0,a0,0x3c
 1000200:	9566                	add	a0,a0,s9
 1000202:	00054503          	lbu	a0,0(a0)
 1000206:	00000097          	auipc	ra,0x0
 100020a:	e38080e7          	jalr	-456(ra) # 100003e <putchar>
 100020e:	03049513          	slli	a0,s1,0x30
 1000212:	9171                	srli	a0,a0,0x3c
 1000214:	9566                	add	a0,a0,s9
 1000216:	00054503          	lbu	a0,0(a0)
 100021a:	00000097          	auipc	ra,0x0
 100021e:	e24080e7          	jalr	-476(ra) # 100003e <putchar>
 1000222:	03449513          	slli	a0,s1,0x34
 1000226:	9171                	srli	a0,a0,0x3c
 1000228:	9566                	add	a0,a0,s9
 100022a:	00054503          	lbu	a0,0(a0)
 100022e:	00000097          	auipc	ra,0x0
 1000232:	e10080e7          	jalr	-496(ra) # 100003e <putchar>
 1000236:	03849513          	slli	a0,s1,0x38
 100023a:	9171                	srli	a0,a0,0x3c
 100023c:	9566                	add	a0,a0,s9
 100023e:	00054503          	lbu	a0,0(a0)
 1000242:	00000097          	auipc	ra,0x0
 1000246:	dfc080e7          	jalr	-516(ra) # 100003e <putchar>
 100024a:	88bd                	andi	s1,s1,15
 100024c:	94e6                	add	s1,s1,s9
 100024e:	0004c503          	lbu	a0,0(s1)
 1000252:	00000097          	auipc	ra,0x0
 1000256:	dec080e7          	jalr	-532(ra) # 100003e <putchar>
 100025a:	0405                	addi	s0,s0,1
 100025c:	b729                	j	1000166 <printf+0x5e>
 100025e:	6502                	ld	a0,0(sp)
 1000260:	00850593          	addi	a1,a0,8
 1000264:	e02e                	sd	a1,0(sp)
 1000266:	6104                	ld	s1,0(a0)
 1000268:	0004c503          	lbu	a0,0(s1)
 100026c:	ee050ce3          	beqz	a0,1000164 <printf+0x5c>
 1000270:	0485                	addi	s1,s1,1
 1000272:	0ff57513          	andi	a0,a0,255
 1000276:	00000097          	auipc	ra,0x0
 100027a:	dc8080e7          	jalr	-568(ra) # 100003e <putchar>
 100027e:	0004c503          	lbu	a0,0(s1)
 1000282:	0485                	addi	s1,s1,1
 1000284:	f57d                	bnez	a0,1000272 <printf+0x16a>
 1000286:	bdf9                	j	1000164 <printf+0x5c>
 1000288:	02d00513          	li	a0,45
 100028c:	00000097          	auipc	ra,0x0
 1000290:	db2080e7          	jalr	-590(ra) # 100003e <putchar>
 1000294:	41b00dbb          	negw	s11,s11
 1000298:	4505                	li	a0,1
 100029a:	016de963          	bltu	s11,s6,10002ac <printf+0x1a4>
 100029e:	4505                	li	a0,1
 10002a0:	0365053b          	mulw	a0,a0,s6
 10002a4:	02add5bb          	divuw	a1,s11,a0
 10002a8:	febaece3          	bltu	s5,a1,10002a0 <printf+0x198>
 10002ac:	84aa                	mv	s1,a0
 10002ae:	02add9bb          	divuw	s3,s11,a0
 10002b2:	03098513          	addi	a0,s3,48
 10002b6:	0ff57513          	andi	a0,a0,255
 10002ba:	00000097          	auipc	ra,0x0
 10002be:	d84080e7          	jalr	-636(ra) # 100003e <putchar>
 10002c2:	02998533          	mul	a0,s3,s1
 10002c6:	40ad8dbb          	subw	s11,s11,a0
 10002ca:	02049513          	slli	a0,s1,0x20
 10002ce:	03a53533          	mulhu	a0,a0,s10
 10002d2:	910d                	srli	a0,a0,0x23
 10002d4:	fd64fce3          	bgeu	s1,s6,10002ac <printf+0x1a4>
 10002d8:	b571                	j	1000164 <printf+0x5c>
 10002da:	02500513          	li	a0,37
 10002de:	00000097          	auipc	ra,0x0
 10002e2:	d60080e7          	jalr	-672(ra) # 100003e <putchar>
 10002e6:	70a6                	ld	ra,104(sp)
 10002e8:	7406                	ld	s0,96(sp)
 10002ea:	64e6                	ld	s1,88(sp)
 10002ec:	6946                	ld	s2,80(sp)
 10002ee:	69a6                	ld	s3,72(sp)
 10002f0:	6a06                	ld	s4,64(sp)
 10002f2:	7ae2                	ld	s5,56(sp)
 10002f4:	7b42                	ld	s6,48(sp)
 10002f6:	7ba2                	ld	s7,40(sp)
 10002f8:	7c02                	ld	s8,32(sp)
 10002fa:	6ce2                	ld	s9,24(sp)
 10002fc:	6d42                	ld	s10,16(sp)
 10002fe:	6da2                	ld	s11,8(sp)
 1000300:	614d                	addi	sp,sp,176
 1000302:	8082                	ret
